ARM GAS  /tmp/ccSDETij.s 			page 1


   1              		.cpu cortex-m4
   2              		.eabi_attribute 27, 1
   3              		.eabi_attribute 28, 1
   4              		.eabi_attribute 20, 1
   5              		.eabi_attribute 21, 1
   6              		.eabi_attribute 23, 3
   7              		.eabi_attribute 24, 1
   8              		.eabi_attribute 25, 1
   9              		.eabi_attribute 26, 1
  10              		.eabi_attribute 30, 1
  11              		.eabi_attribute 34, 1
  12              		.eabi_attribute 18, 4
  13              		.file	"game_engine.c"
  14              		.text
  15              	.Ltext0:
  16              		.cfi_sections	.debug_frame
  17              		.section	.text.game_set_cell_value,"ax",%progbits
  18              		.align	1
  19              		.global	game_set_cell_value
  20              		.arch armv7e-m
  21              		.syntax unified
  22              		.thumb
  23              		.thumb_func
  24              		.fpu fpv4-sp-d16
  26              	game_set_cell_value:
  27              	.LVL0:
  28              	.LFB10:
  29              		.file 1 "Core/Src/game_engine.c"
   1:Core/Src/game_engine.c **** #include "game_engine.h"
   2:Core/Src/game_engine.c **** 
   3:Core/Src/game_engine.c **** void game_start(game_handle *handle) {
   4:Core/Src/game_engine.c ****     handle->player_pos_x = handle->field_width / 2;
   5:Core/Src/game_engine.c ****     handle->player_pos_y = handle->field_height / 2;
   6:Core/Src/game_engine.c ****     handle->mines_count = handle->field_width * handle->field_height / 5 * 1;
   7:Core/Src/game_engine.c **** 
   8:Core/Src/game_engine.c ****     for(int i = 0; i < handle->field_width * handle->field_height; ++i) {
   9:Core/Src/game_engine.c ****         handle->field[i] = 0b00000001;
  10:Core/Src/game_engine.c ****     }
  11:Core/Src/game_engine.c **** 
  12:Core/Src/game_engine.c ****     for(uint8_t i = 0; i < handle->field_height; ++i) {
  13:Core/Src/game_engine.c ****         for(uint8_t j = 0; j < handle->field_width; ++j) {
  14:Core/Src/game_engine.c ****             //draw_picture(j * 16, i * 16, 16, 16,
  15:Core/Src/game_engine.c ****                          //not_opened_cell, handle->graphics);
  16:Core/Src/game_engine.c ****             draw_cell(j, i, handle);
  17:Core/Src/game_engine.c ****         }
  18:Core/Src/game_engine.c ****     }
  19:Core/Src/game_engine.c **** 
  20:Core/Src/game_engine.c ****     //draw_picture(handle->player_pos_x * 16, handle->player_pos_y * 16,
  21:Core/Src/game_engine.c ****       //           16, 16, selected_cell, handle->graphics);
  22:Core/Src/game_engine.c **** }
  23:Core/Src/game_engine.c **** 
  24:Core/Src/game_engine.c **** void game_player_move(int8_t x, int8_t y, game_handle *handle) {
  25:Core/Src/game_engine.c ****     uint8_t old_x = handle->player_pos_x;
  26:Core/Src/game_engine.c ****     uint8_t old_y = handle->player_pos_y;
  27:Core/Src/game_engine.c ****     if(x) {
  28:Core/Src/game_engine.c ****         //draw_picture(handle->player_pos_x * 16, handle->player_pos_y * 16,
  29:Core/Src/game_engine.c ****          //        16, 16, not_opened_cell, handle->graphics);
ARM GAS  /tmp/ccSDETij.s 			page 2


  30:Core/Src/game_engine.c ****         if(x < 0 && handle->player_pos_x == 0) {
  31:Core/Src/game_engine.c ****             handle->player_pos_x = handle->field_width - 1;
  32:Core/Src/game_engine.c ****         }
  33:Core/Src/game_engine.c ****         else {
  34:Core/Src/game_engine.c ****             handle->player_pos_x += x;
  35:Core/Src/game_engine.c ****             if(handle->player_pos_x >= handle->field_width) {
  36:Core/Src/game_engine.c ****                 handle->player_pos_x = 0;
  37:Core/Src/game_engine.c ****             }
  38:Core/Src/game_engine.c ****         }
  39:Core/Src/game_engine.c **** 
  40:Core/Src/game_engine.c ****         //draw_picture(handle->player_pos_x * 16, handle->player_pos_y * 16,
  41:Core/Src/game_engine.c ****         //         16, 16, selected_cell, handle->graphics);
  42:Core/Src/game_engine.c ****     }
  43:Core/Src/game_engine.c **** 
  44:Core/Src/game_engine.c ****     if(y) {
  45:Core/Src/game_engine.c ****         //draw_picture(handle->player_pos_x * 16, handle->player_pos_y * 16,
  46:Core/Src/game_engine.c ****         //         16, 16, not_opened_cell, handle->graphics);
  47:Core/Src/game_engine.c ****         if(y < 0 && handle->player_pos_y == 0) {
  48:Core/Src/game_engine.c ****             handle->player_pos_y = handle->field_height - 1;
  49:Core/Src/game_engine.c ****         }
  50:Core/Src/game_engine.c ****         else {
  51:Core/Src/game_engine.c ****             handle->player_pos_y += y;
  52:Core/Src/game_engine.c ****             if(handle->player_pos_y >= handle->field_height) {
  53:Core/Src/game_engine.c ****                 handle->player_pos_y = 0;
  54:Core/Src/game_engine.c ****             }
  55:Core/Src/game_engine.c ****         }
  56:Core/Src/game_engine.c **** 
  57:Core/Src/game_engine.c ****         //draw_picture(handle->player_pos_x * 16, handle->player_pos_y * 16,
  58:Core/Src/game_engine.c ****         //         16, 16, selected_cell, handle->graphics);
  59:Core/Src/game_engine.c ****     }
  60:Core/Src/game_engine.c **** 
  61:Core/Src/game_engine.c ****     draw_cell(old_x, old_y, handle);
  62:Core/Src/game_engine.c ****     draw_cell(handle->player_pos_x, handle->player_pos_y, handle);
  63:Core/Src/game_engine.c **** }
  64:Core/Src/game_engine.c **** 
  65:Core/Src/game_engine.c **** void game_player_move_up(game_handle *handle) {
  66:Core/Src/game_engine.c ****     game_player_move(0, -1, handle);
  67:Core/Src/game_engine.c ****     return;
  68:Core/Src/game_engine.c **** }
  69:Core/Src/game_engine.c **** 
  70:Core/Src/game_engine.c **** void game_player_move_down(game_handle *handle) {
  71:Core/Src/game_engine.c ****     game_player_move(0, 1, handle);
  72:Core/Src/game_engine.c ****     return;
  73:Core/Src/game_engine.c **** }
  74:Core/Src/game_engine.c **** 
  75:Core/Src/game_engine.c **** void game_player_move_left(game_handle *handle) {
  76:Core/Src/game_engine.c ****     game_player_move(-1, 0, handle);
  77:Core/Src/game_engine.c ****     return;
  78:Core/Src/game_engine.c **** }
  79:Core/Src/game_engine.c **** 
  80:Core/Src/game_engine.c **** void game_player_move_right(game_handle *handle) {
  81:Core/Src/game_engine.c ****     game_player_move(1, 0, handle);
  82:Core/Src/game_engine.c ****     return;
  83:Core/Src/game_engine.c **** }
  84:Core/Src/game_engine.c **** 
  85:Core/Src/game_engine.c **** void game_player_put_flag(game_handle *handle) {
  86:Core/Src/game_engine.c ****     if(!game_is_cell_opened(handle->player_pos_x, handle->player_pos_y, handle)) {
ARM GAS  /tmp/ccSDETij.s 			page 3


  87:Core/Src/game_engine.c ****         if(game_is_cell_under_flag(handle->player_pos_x, handle->player_pos_y, handle)) {
  88:Core/Src/game_engine.c ****             handle->field[handle->player_pos_x + handle->player_pos_y * handle->field_width] -= 2;
  89:Core/Src/game_engine.c ****         }
  90:Core/Src/game_engine.c ****         else {
  91:Core/Src/game_engine.c ****             handle->field[handle->player_pos_x + handle->player_pos_y * handle->field_width] += 2;
  92:Core/Src/game_engine.c ****         }
  93:Core/Src/game_engine.c ****         draw_cell(handle->player_pos_x, handle->player_pos_y, handle);
  94:Core/Src/game_engine.c ****     }
  95:Core/Src/game_engine.c ****     return;
  96:Core/Src/game_engine.c **** }
  97:Core/Src/game_engine.c **** 
  98:Core/Src/game_engine.c **** void game_player_open_cell(game_handle *handle) {
  99:Core/Src/game_engine.c ****     if(handle->openings == 0) {
 100:Core/Src/game_engine.c ****         srand(12);
 101:Core/Src/game_engine.c ****         uint16_t mines_count = 0;
 102:Core/Src/game_engine.c **** 
 103:Core/Src/game_engine.c ****         while(mines_count <= handle->mines_count) {
 104:Core/Src/game_engine.c ****             uint8_t mine_x = (rand() % (handle->field_width + 1));
 105:Core/Src/game_engine.c ****             uint8_t mine_y = (rand() % (handle->field_height + 1));
 106:Core/Src/game_engine.c **** 
 107:Core/Src/game_engine.c ****             if(game_get_cell_value(mine_x, mine_y, handle) == 10 ||
 108:Core/Src/game_engine.c ****               (mine_x == handle->player_pos_x && mine_y == handle->player_pos_y)) {
 109:Core/Src/game_engine.c ****                 continue;
 110:Core/Src/game_engine.c ****             }
 111:Core/Src/game_engine.c **** 
 112:Core/Src/game_engine.c ****             ++mines_count;
 113:Core/Src/game_engine.c ****             game_set_cell_value(mine_x, mine_y, 10, handle);
 114:Core/Src/game_engine.c **** 
 115:Core/Src/game_engine.c ****             for(int16_t i = mine_y - 1; i < (mine_y + 2); ++i) {
 116:Core/Src/game_engine.c ****                 for(int16_t j = mine_x - 1;  j < (mine_x + 2); ++j) {
 117:Core/Src/game_engine.c ****                     if(i < 0 || j < 0 || j >= handle->field_width ||
 118:Core/Src/game_engine.c ****                        i >= handle->field_height || (i == mine_y && j == mine_x)) {
 119:Core/Src/game_engine.c ****                         continue;
 120:Core/Src/game_engine.c ****                     }
 121:Core/Src/game_engine.c ****                     if(game_get_cell_value(j, i, handle) == 10) {
 122:Core/Src/game_engine.c ****                         continue;
 123:Core/Src/game_engine.c ****                     }
 124:Core/Src/game_engine.c ****                     game_set_cell_value(j, i, game_get_cell_value(j, i, handle) + 1, handle);
 125:Core/Src/game_engine.c ****                 }
 126:Core/Src/game_engine.c ****             }
 127:Core/Src/game_engine.c ****         }
 128:Core/Src/game_engine.c **** 
 129:Core/Src/game_engine.c ****     }
 130:Core/Src/game_engine.c **** 
 131:Core/Src/game_engine.c ****     /*for(uint8_t i = 0; i < handle->field_width; ++i) {
 132:Core/Src/game_engine.c ****         for(uint8_t j = 0; j < handle->field_height; ++j) {
 133:Core/Src/game_engine.c ****             draw_cell(i, j, handle);
 134:Core/Src/game_engine.c ****         }
 135:Core/Src/game_engine.c ****     }*/
 136:Core/Src/game_engine.c **** 
 137:Core/Src/game_engine.c ****     uint8_t x = handle->player_pos_x, y = handle->player_pos_y;
 138:Core/Src/game_engine.c ****     game_open_cells_recursive(x, y, handle);
 139:Core/Src/game_engine.c ****     /*if(game_is_cell_under_flag(x, y, handle)) {
 140:Core/Src/game_engine.c ****         return;
 141:Core/Src/game_engine.c ****     }
 142:Core/Src/game_engine.c **** 
 143:Core/Src/game_engine.c ****     if(game_is_cell_open(x, y, handle)) {
ARM GAS  /tmp/ccSDETij.s 			page 4


 144:Core/Src/game_engine.c ****         return;
 145:Core/Src/game_engine.c ****     }
 146:Core/Src/game_engine.c **** 
 147:Core/Src/game_engine.c ****     if(game_get_cell_value(x, y, handle) == 10) {
 148:Core/Src/game_engine.c ****         handle->game_state = 2;
 149:Core/Src/game_engine.c ****         return;
 150:Core/Src/game_engine.c ****     }
 151:Core/Src/game_engine.c **** 
 152:Core/Src/game_engine.c ****     ++handle->openings;
 153:Core/Src/game_engine.c ****     game_set_cell_opened(handle->player_pos_x, handle->player_pos_y, handle);
 154:Core/Src/game_engine.c ****     if(handle->openings == (handle->width * handle->height - handle->mines_count)) {
 155:Core/Src/game_engine.c ****         handle->game_state = 1;
 156:Core/Src/game_engine.c ****         return;
 157:Core/Src/game_engine.c ****     }
 158:Core/Src/game_engine.c **** 
 159:Core/Src/game_engine.c ****     if(game_get_cell_value(x, y, handle) == 0 ||
 160:Core/Src/game_engine.c ****        game_get_cell_value(x, y, handle) ==
 161:Core/Src/game_engine.c ****        game_calculate_flags_around_cell(x, y, handle))
 162:Core/Src/game_engine.c ****     {
 163:Core/Src/game_engine.c ****         for(int16_t i = y - 1; i < (y + 2); ++i) {
 164:Core/Src/game_engine.c ****             for(int16_t j = x - 1;  j < (x + 2); ++j) {
 165:Core/Src/game_engine.c ****                 if(i < 0 || j < 0 || j >= handle->field_width ||
 166:Core/Src/game_engine.c ****                     i >= handle->field_height || (i == y && j == x)) {
 167:Core/Src/game_engine.c ****                     continue;
 168:Core/Src/game_engine.c ****                 }
 169:Core/Src/game_engine.c **** 
 170:Core/Src/game_engine.c ****                 if(game_get_cell_value(j, i, handle) == 10) {
 171:Core/Src/game_engine.c ****                     continue;
 172:Core/Src/game_engine.c ****                 }
 173:Core/Src/game_engine.c **** 
 174:Core/Src/game_engine.c ****                 game_open_cells_recursive(x, y, handle);
 175:Core/Src/game_engine.c ****             }
 176:Core/Src/game_engine.c ****         }
 177:Core/Src/game_engine.c ****     }
 178:Core/Src/game_engine.c **** 
 179:Core/Src/game_engine.c ****     return;*/
 180:Core/Src/game_engine.c **** }
 181:Core/Src/game_engine.c **** 
 182:Core/Src/game_engine.c **** void game_open_cells_recursive(uint8_t x, uint8_t y, game_handle *handle) {
 183:Core/Src/game_engine.c ****     //int q = 0;
 184:Core/Src/game_engine.c ****     //while(q++ < 10000) {};
 185:Core/Src/game_engine.c **** 
 186:Core/Src/game_engine.c ****     //draw_cell(x, y, handle);
 187:Core/Src/game_engine.c **** 
 188:Core/Src/game_engine.c ****     if(game_is_cell_under_flag(x, y, handle)) {
 189:Core/Src/game_engine.c ****         return;
 190:Core/Src/game_engine.c ****     }
 191:Core/Src/game_engine.c **** 
 192:Core/Src/game_engine.c ****     if(game_is_cell_opened(x, y, handle)) {
 193:Core/Src/game_engine.c ****         return;
 194:Core/Src/game_engine.c ****     }
 195:Core/Src/game_engine.c **** 
 196:Core/Src/game_engine.c ****     if(game_get_cell_value(x, y, handle) == 10) {
 197:Core/Src/game_engine.c ****         handle->game_state = 2;
 198:Core/Src/game_engine.c ****         return;
 199:Core/Src/game_engine.c ****     }
 200:Core/Src/game_engine.c **** 
ARM GAS  /tmp/ccSDETij.s 			page 5


 201:Core/Src/game_engine.c ****     ++handle->openings;
 202:Core/Src/game_engine.c ****     game_set_cell_opened(handle->player_pos_x, handle->player_pos_y, handle);
 203:Core/Src/game_engine.c ****     /*if(handle->openings == (handle->field_width * handle->field_height - handle->mines_count)) {
 204:Core/Src/game_engine.c ****         handle->game_state = 1;
 205:Core/Src/game_engine.c ****         return;
 206:Core/Src/game_engine.c ****     }*/
 207:Core/Src/game_engine.c **** 
 208:Core/Src/game_engine.c ****     if(game_get_cell_value(x, y, handle) == 0 ||
 209:Core/Src/game_engine.c ****        game_get_cell_value(x, y, handle) ==
 210:Core/Src/game_engine.c ****        game_calculate_flags_around_cell(x, y, handle))
 211:Core/Src/game_engine.c ****     {
 212:Core/Src/game_engine.c ****         for(uint16_t i = y - 1; i < (y + 2); ++i) {
 213:Core/Src/game_engine.c ****             for(uint16_t j = x - 1;  j < (x + 2); ++j) {
 214:Core/Src/game_engine.c ****                 if((i < 0) || (j < 0) || (j >= handle->field_width) ||
 215:Core/Src/game_engine.c ****                     (i >= handle->field_height) || (i == y && j == x)) {
 216:Core/Src/game_engine.c ****                     continue;
 217:Core/Src/game_engine.c ****                 }
 218:Core/Src/game_engine.c **** 
 219:Core/Src/game_engine.c ****                 if(game_get_cell_value(j, i, handle) == 10) {
 220:Core/Src/game_engine.c ****                     continue;
 221:Core/Src/game_engine.c ****                 }
 222:Core/Src/game_engine.c **** 
 223:Core/Src/game_engine.c ****                 game_open_cells_recursive(j, i, handle);
 224:Core/Src/game_engine.c ****             }
 225:Core/Src/game_engine.c ****         }
 226:Core/Src/game_engine.c ****     }
 227:Core/Src/game_engine.c **** 
 228:Core/Src/game_engine.c ****     return;
 229:Core/Src/game_engine.c **** }
 230:Core/Src/game_engine.c **** 
 231:Core/Src/game_engine.c **** uint8_t game_calculate_flags_around_cell(uint8_t x, uint8_t y, game_handle *handle) {
 232:Core/Src/game_engine.c ****     uint8_t flags_count = 0;
 233:Core/Src/game_engine.c **** 
 234:Core/Src/game_engine.c ****     for(int16_t i = y - 1; i < (y + 2); ++i) {
 235:Core/Src/game_engine.c ****         for(int16_t j = x - 1;  j < (x + 2); ++j) {
 236:Core/Src/game_engine.c ****             if(i < 0 || j < 0 || j >= handle->field_width ||
 237:Core/Src/game_engine.c ****                i >= handle->field_height || (i == y && j == x)) {
 238:Core/Src/game_engine.c ****                 continue;
 239:Core/Src/game_engine.c ****             }
 240:Core/Src/game_engine.c ****             flags_count += game_is_cell_under_flag(x, y, handle);
 241:Core/Src/game_engine.c ****         }
 242:Core/Src/game_engine.c ****     }
 243:Core/Src/game_engine.c **** 
 244:Core/Src/game_engine.c ****     return flags_count;
 245:Core/Src/game_engine.c **** }
 246:Core/Src/game_engine.c **** 
 247:Core/Src/game_engine.c **** void game_set_cell_value(uint8_t x, uint8_t y, uint8_t value, game_handle *handle) {
  30              		.loc 1 247 84 view -0
  31              		.cfi_startproc
  32              		@ args = 0, pretend = 0, frame = 0
  33              		@ frame_needed = 0, uses_anonymous_args = 0
  34              		@ link register save eliminated.
  35              		.loc 1 247 84 is_stmt 0 view .LVU1
  36 0000 70B4     		push	{r4, r5, r6}
  37              	.LCFI0:
  38              		.cfi_def_cfa_offset 12
  39              		.cfi_offset 4, -12
ARM GAS  /tmp/ccSDETij.s 			page 6


  40              		.cfi_offset 5, -8
  41              		.cfi_offset 6, -4
 248:Core/Src/game_engine.c ****     handle->field[y * handle->field_width + x] <<= 4;
  42              		.loc 1 248 5 is_stmt 1 view .LVU2
  43              		.loc 1 248 11 is_stmt 0 view .LVU3
  44 0002 5E68     		ldr	r6, [r3, #4]
  45              		.loc 1 248 29 view .LVU4
  46 0004 1C78     		ldrb	r4, [r3]	@ zero_extendqisi2
  47              		.loc 1 248 48 view .LVU5
  48 0006 01FB0404 		mla	r4, r1, r4, r0
  49 000a 355D     		ldrb	r5, [r6, r4]	@ zero_extendqisi2
  50 000c 2D01     		lsls	r5, r5, #4
  51 000e 3555     		strb	r5, [r6, r4]
 249:Core/Src/game_engine.c ****     handle->field[y * handle->field_width + x] >>= 4;
  52              		.loc 1 249 5 is_stmt 1 view .LVU6
  53              		.loc 1 249 11 is_stmt 0 view .LVU7
  54 0010 5E68     		ldr	r6, [r3, #4]
  55              		.loc 1 249 29 view .LVU8
  56 0012 1C78     		ldrb	r4, [r3]	@ zero_extendqisi2
  57              		.loc 1 249 48 view .LVU9
  58 0014 01FB0404 		mla	r4, r1, r4, r0
  59 0018 355D     		ldrb	r5, [r6, r4]	@ zero_extendqisi2
  60 001a 2D09     		lsrs	r5, r5, #4
  61 001c 3555     		strb	r5, [r6, r4]
 250:Core/Src/game_engine.c ****     handle->field[y * handle->field_width + x] += (uint8_t)(value << (uint8_t)4);
  62              		.loc 1 250 5 is_stmt 1 view .LVU10
  63              		.loc 1 250 11 is_stmt 0 view .LVU11
  64 001e 5C68     		ldr	r4, [r3, #4]
  65              		.loc 1 250 29 view .LVU12
  66 0020 1B78     		ldrb	r3, [r3]	@ zero_extendqisi2
  67              	.LVL1:
  68              		.loc 1 250 48 view .LVU13
  69 0022 01FB0301 		mla	r1, r1, r3, r0
  70              	.LVL2:
  71              		.loc 1 250 51 view .LVU14
  72 0026 1201     		lsls	r2, r2, #4
  73              	.LVL3:
  74              		.loc 1 250 51 view .LVU15
  75 0028 D2B2     		uxtb	r2, r2
  76              		.loc 1 250 48 view .LVU16
  77 002a 635C     		ldrb	r3, [r4, r1]	@ zero_extendqisi2
  78 002c 1A44     		add	r2, r2, r3
  79 002e 6254     		strb	r2, [r4, r1]
 251:Core/Src/game_engine.c **** }
  80              		.loc 1 251 1 view .LVU17
  81 0030 70BC     		pop	{r4, r5, r6}
  82              	.LCFI1:
  83              		.cfi_restore 6
  84              		.cfi_restore 5
  85              		.cfi_restore 4
  86              		.cfi_def_cfa_offset 0
  87 0032 7047     		bx	lr
  88              		.cfi_endproc
  89              	.LFE10:
  91              		.section	.text.game_get_cell_value,"ax",%progbits
  92              		.align	1
  93              		.global	game_get_cell_value
ARM GAS  /tmp/ccSDETij.s 			page 7


  94              		.syntax unified
  95              		.thumb
  96              		.thumb_func
  97              		.fpu fpv4-sp-d16
  99              	game_get_cell_value:
 100              	.LVL4:
 101              	.LFB11:
 252:Core/Src/game_engine.c **** 
 253:Core/Src/game_engine.c **** uint8_t game_get_cell_value(uint8_t x, uint8_t y, game_handle *handle) {
 102              		.loc 1 253 72 is_stmt 1 view -0
 103              		.cfi_startproc
 104              		@ args = 0, pretend = 0, frame = 0
 105              		@ frame_needed = 0, uses_anonymous_args = 0
 106              		@ link register save eliminated.
 107              		.loc 1 253 72 is_stmt 0 view .LVU19
 108 0000 10B4     		push	{r4}
 109              	.LCFI2:
 110              		.cfi_def_cfa_offset 4
 111              		.cfi_offset 4, -4
 254:Core/Src/game_engine.c ****     return (uint8_t)(handle->field[y * handle->field_width + x]) >> (uint8_t)4;
 112              		.loc 1 254 5 is_stmt 1 view .LVU20
 113              		.loc 1 254 28 is_stmt 0 view .LVU21
 114 0002 5468     		ldr	r4, [r2, #4]
 115              		.loc 1 254 46 view .LVU22
 116 0004 1378     		ldrb	r3, [r2]	@ zero_extendqisi2
 117              		.loc 1 254 60 view .LVU23
 118 0006 03FB0101 		mla	r1, r3, r1, r0
 119              	.LVL5:
 120              		.loc 1 254 35 view .LVU24
 121 000a 605C     		ldrb	r0, [r4, r1]	@ zero_extendqisi2
 122              	.LVL6:
 255:Core/Src/game_engine.c **** }
 123              		.loc 1 255 1 view .LVU25
 124 000c 0009     		lsrs	r0, r0, #4
 125 000e 5DF8044B 		ldr	r4, [sp], #4
 126              	.LCFI3:
 127              		.cfi_restore 4
 128              		.cfi_def_cfa_offset 0
 129 0012 7047     		bx	lr
 130              		.cfi_endproc
 131              	.LFE11:
 133              		.section	.text.game_is_cell_opened,"ax",%progbits
 134              		.align	1
 135              		.global	game_is_cell_opened
 136              		.syntax unified
 137              		.thumb
 138              		.thumb_func
 139              		.fpu fpv4-sp-d16
 141              	game_is_cell_opened:
 142              	.LVL7:
 143              	.LFB12:
 256:Core/Src/game_engine.c **** 
 257:Core/Src/game_engine.c **** uint8_t game_is_cell_opened(uint8_t x, uint8_t y, game_handle *handle) {
 144              		.loc 1 257 72 is_stmt 1 view -0
 145              		.cfi_startproc
 146              		@ args = 0, pretend = 0, frame = 0
 147              		@ frame_needed = 0, uses_anonymous_args = 0
ARM GAS  /tmp/ccSDETij.s 			page 8


 148              		@ link register save eliminated.
 149              		.loc 1 257 72 is_stmt 0 view .LVU27
 150 0000 10B4     		push	{r4}
 151              	.LCFI4:
 152              		.cfi_def_cfa_offset 4
 153              		.cfi_offset 4, -4
 258:Core/Src/game_engine.c ****     return ((uint8_t)(handle->field[y * handle->field_width + x] << 4) == (uint8_t)0);
 154              		.loc 1 258 5 is_stmt 1 view .LVU28
 155              		.loc 1 258 29 is_stmt 0 view .LVU29
 156 0002 5468     		ldr	r4, [r2, #4]
 157              		.loc 1 258 47 view .LVU30
 158 0004 1378     		ldrb	r3, [r2]	@ zero_extendqisi2
 159              		.loc 1 258 61 view .LVU31
 160 0006 03FB0101 		mla	r1, r3, r1, r0
 161              	.LVL8:
 162              		.loc 1 258 36 view .LVU32
 163 000a 635C     		ldrb	r3, [r4, r1]	@ zero_extendqisi2
 164              		.loc 1 258 13 view .LVU33
 165 000c 1B01     		lsls	r3, r3, #4
 166              		.loc 1 258 72 view .LVU34
 167 000e 13F0FF0F 		tst	r3, #255
 259:Core/Src/game_engine.c **** }
 168              		.loc 1 259 1 view .LVU35
 169 0012 0CBF     		ite	eq
 170 0014 0120     		moveq	r0, #1
 171              	.LVL9:
 172              		.loc 1 259 1 view .LVU36
 173 0016 0020     		movne	r0, #0
 174 0018 5DF8044B 		ldr	r4, [sp], #4
 175              	.LCFI5:
 176              		.cfi_restore 4
 177              		.cfi_def_cfa_offset 0
 178 001c 7047     		bx	lr
 179              		.cfi_endproc
 180              	.LFE12:
 182              		.section	.text.game_is_cell_under_flag,"ax",%progbits
 183              		.align	1
 184              		.global	game_is_cell_under_flag
 185              		.syntax unified
 186              		.thumb
 187              		.thumb_func
 188              		.fpu fpv4-sp-d16
 190              	game_is_cell_under_flag:
 191              	.LVL10:
 192              	.LFB14:
 260:Core/Src/game_engine.c **** 
 261:Core/Src/game_engine.c **** void game_set_cell_opened(uint8_t x, uint8_t y, game_handle *handle) {
 262:Core/Src/game_engine.c ****     if(!game_is_cell_opened(x, y, handle)) {
 263:Core/Src/game_engine.c ****         handle->field[y * handle->field_width + x] -= 1;
 264:Core/Src/game_engine.c ****         draw_cell(x, y, handle);
 265:Core/Src/game_engine.c ****     }
 266:Core/Src/game_engine.c ****     return;
 267:Core/Src/game_engine.c **** }
 268:Core/Src/game_engine.c **** 
 269:Core/Src/game_engine.c **** uint8_t game_is_cell_under_flag(uint8_t x, uint8_t y, game_handle *handle) {
 193              		.loc 1 269 76 is_stmt 1 view -0
 194              		.cfi_startproc
ARM GAS  /tmp/ccSDETij.s 			page 9


 195              		@ args = 0, pretend = 0, frame = 0
 196              		@ frame_needed = 0, uses_anonymous_args = 0
 197              		@ link register save eliminated.
 198              		.loc 1 269 76 is_stmt 0 view .LVU38
 199 0000 10B4     		push	{r4}
 200              	.LCFI6:
 201              		.cfi_def_cfa_offset 4
 202              		.cfi_offset 4, -4
 270:Core/Src/game_engine.c ****     return ((uint8_t)(handle->field[y * handle->field_width + x] << 4)) == (uint8_t)0b00110000;
 203              		.loc 1 270 5 is_stmt 1 view .LVU39
 204              		.loc 1 270 29 is_stmt 0 view .LVU40
 205 0002 5468     		ldr	r4, [r2, #4]
 206              		.loc 1 270 47 view .LVU41
 207 0004 1378     		ldrb	r3, [r2]	@ zero_extendqisi2
 208              		.loc 1 270 61 view .LVU42
 209 0006 03FB0101 		mla	r1, r3, r1, r0
 210              	.LVL11:
 211              		.loc 1 270 36 view .LVU43
 212 000a 605C     		ldrb	r0, [r4, r1]	@ zero_extendqisi2
 213              	.LVL12:
 214              		.loc 1 270 13 view .LVU44
 215 000c 0001     		lsls	r0, r0, #4
 216 000e C0B2     		uxtb	r0, r0
 271:Core/Src/game_engine.c **** }
 217              		.loc 1 271 1 view .LVU45
 218 0010 3028     		cmp	r0, #48
 219 0012 14BF     		ite	ne
 220 0014 0020     		movne	r0, #0
 221 0016 0120     		moveq	r0, #1
 222 0018 5DF8044B 		ldr	r4, [sp], #4
 223              	.LCFI7:
 224              		.cfi_restore 4
 225              		.cfi_def_cfa_offset 0
 226 001c 7047     		bx	lr
 227              		.cfi_endproc
 228              	.LFE14:
 230              		.section	.text.game_calculate_flags_around_cell,"ax",%progbits
 231              		.align	1
 232              		.global	game_calculate_flags_around_cell
 233              		.syntax unified
 234              		.thumb
 235              		.thumb_func
 236              		.fpu fpv4-sp-d16
 238              	game_calculate_flags_around_cell:
 239              	.LVL13:
 240              	.LFB9:
 231:Core/Src/game_engine.c ****     uint8_t flags_count = 0;
 241              		.loc 1 231 85 is_stmt 1 view -0
 242              		.cfi_startproc
 243              		@ args = 0, pretend = 0, frame = 0
 244              		@ frame_needed = 0, uses_anonymous_args = 0
 231:Core/Src/game_engine.c ****     uint8_t flags_count = 0;
 245              		.loc 1 231 85 is_stmt 0 view .LVU47
 246 0000 2DE9F84F 		push	{r3, r4, r5, r6, r7, r8, r9, r10, fp, lr}
 247              	.LCFI8:
 248              		.cfi_def_cfa_offset 40
 249              		.cfi_offset 3, -40
ARM GAS  /tmp/ccSDETij.s 			page 10


 250              		.cfi_offset 4, -36
 251              		.cfi_offset 5, -32
 252              		.cfi_offset 6, -28
 253              		.cfi_offset 7, -24
 254              		.cfi_offset 8, -20
 255              		.cfi_offset 9, -16
 256              		.cfi_offset 10, -12
 257              		.cfi_offset 11, -8
 258              		.cfi_offset 14, -4
 259 0004 0646     		mov	r6, r0
 260 0006 8A46     		mov	r10, r1
 261 0008 1746     		mov	r7, r2
 232:Core/Src/game_engine.c **** 
 262              		.loc 1 232 5 is_stmt 1 view .LVU48
 263              	.LVL14:
 234:Core/Src/game_engine.c ****         for(int16_t j = x - 1;  j < (x + 2); ++j) {
 264              		.loc 1 234 5 view .LVU49
 265              	.LBB2:
 234:Core/Src/game_engine.c ****         for(int16_t j = x - 1;  j < (x + 2); ++j) {
 266              		.loc 1 234 9 view .LVU50
 234:Core/Src/game_engine.c ****         for(int16_t j = x - 1;  j < (x + 2); ++j) {
 267              		.loc 1 234 17 is_stmt 0 view .LVU51
 268 000a 4D1E     		subs	r5, r1, #1
 269              	.LVL15:
 234:Core/Src/game_engine.c ****         for(int16_t j = x - 1;  j < (x + 2); ++j) {
 270              		.loc 1 234 17 view .LVU52
 271              	.LBE2:
 232:Core/Src/game_engine.c **** 
 272              		.loc 1 232 13 view .LVU53
 273 000c 4FF00008 		mov	r8, #0
 274              	.LBB5:
 234:Core/Src/game_engine.c ****         for(int16_t j = x - 1;  j < (x + 2); ++j) {
 275              		.loc 1 234 5 view .LVU54
 276 0010 1EE0     		b	.L10
 277              	.LVL16:
 278              	.L13:
 279              	.LBB3:
 240:Core/Src/game_engine.c ****         }
 280              		.loc 1 240 13 is_stmt 1 view .LVU55
 240:Core/Src/game_engine.c ****         }
 281              		.loc 1 240 28 is_stmt 0 view .LVU56
 282 0012 3A46     		mov	r2, r7
 283 0014 5146     		mov	r1, r10
 284 0016 3046     		mov	r0, r6
 285 0018 FFF7FEFF 		bl	game_is_cell_under_flag
 286              	.LVL17:
 240:Core/Src/game_engine.c ****         }
 287              		.loc 1 240 25 view .LVU57
 288 001c 8044     		add	r8, r8, r0
 289              	.LVL18:
 240:Core/Src/game_engine.c ****         }
 290              		.loc 1 240 25 view .LVU58
 291 001e 5FFA88F8 		uxtb	r8, r8
 292              	.LVL19:
 293              	.L12:
 235:Core/Src/game_engine.c ****             if(i < 0 || j < 0 || j >= handle->field_width ||
 294              		.loc 1 235 46 discriminator 2 view .LVU59
ARM GAS  /tmp/ccSDETij.s 			page 11


 295 0022 0134     		adds	r4, r4, #1
 296              	.LVL20:
 235:Core/Src/game_engine.c ****             if(i < 0 || j < 0 || j >= handle->field_width ||
 297              		.loc 1 235 46 discriminator 2 view .LVU60
 298 0024 24B2     		sxth	r4, r4
 299              	.LVL21:
 300              	.L11:
 235:Core/Src/game_engine.c ****             if(i < 0 || j < 0 || j >= handle->field_width ||
 301              		.loc 1 235 35 discriminator 1 view .LVU61
 302 0026 731C     		adds	r3, r6, #1
 303 0028 2246     		mov	r2, r4
 235:Core/Src/game_engine.c ****             if(i < 0 || j < 0 || j >= handle->field_width ||
 304              		.loc 1 235 9 discriminator 1 view .LVU62
 305 002a A342     		cmp	r3, r4
 306 002c 0EDB     		blt	.L17
 236:Core/Src/game_engine.c ****                i >= handle->field_height || (i == y && j == x)) {
 307              		.loc 1 236 13 is_stmt 1 view .LVU63
 236:Core/Src/game_engine.c ****                i >= handle->field_height || (i == y && j == x)) {
 308              		.loc 1 236 15 is_stmt 0 view .LVU64
 309 002e 002D     		cmp	r5, #0
 310 0030 F7DB     		blt	.L12
 236:Core/Src/game_engine.c ****                i >= handle->field_height || (i == y && j == x)) {
 311              		.loc 1 236 22 discriminator 1 view .LVU65
 312 0032 002C     		cmp	r4, #0
 313 0034 F5DB     		blt	.L12
 236:Core/Src/game_engine.c ****                i >= handle->field_height || (i == y && j == x)) {
 314              		.loc 1 236 45 discriminator 2 view .LVU66
 315 0036 3B78     		ldrb	r3, [r7]	@ zero_extendqisi2
 236:Core/Src/game_engine.c ****                i >= handle->field_height || (i == y && j == x)) {
 316              		.loc 1 236 31 discriminator 2 view .LVU67
 317 0038 9342     		cmp	r3, r2
 318 003a F2DD     		ble	.L12
 237:Core/Src/game_engine.c ****                 continue;
 319              		.loc 1 237 27 discriminator 3 view .LVU68
 320 003c 7B78     		ldrb	r3, [r7, #1]	@ zero_extendqisi2
 236:Core/Src/game_engine.c ****                i >= handle->field_height || (i == y && j == x)) {
 321              		.loc 1 236 59 discriminator 3 view .LVU69
 322 003e 4B45     		cmp	r3, r9
 323 0040 EFDD     		ble	.L12
 237:Core/Src/game_engine.c ****                 continue;
 324              		.loc 1 237 42 view .LVU70
 325 0042 CB45     		cmp	fp, r9
 326 0044 E5D1     		bne	.L13
 237:Core/Src/game_engine.c ****                 continue;
 327              		.loc 1 237 53 discriminator 1 view .LVU71
 328 0046 9642     		cmp	r6, r2
 329 0048 E3D1     		bne	.L13
 330 004a EAE7     		b	.L12
 331              	.L17:
 237:Core/Src/game_engine.c ****                 continue;
 332              		.loc 1 237 53 discriminator 1 view .LVU72
 333              	.LBE3:
 234:Core/Src/game_engine.c ****         for(int16_t j = x - 1;  j < (x + 2); ++j) {
 334              		.loc 1 234 41 discriminator 2 view .LVU73
 335 004c 0135     		adds	r5, r5, #1
 336              	.LVL22:
 234:Core/Src/game_engine.c ****         for(int16_t j = x - 1;  j < (x + 2); ++j) {
ARM GAS  /tmp/ccSDETij.s 			page 12


 337              		.loc 1 234 41 discriminator 2 view .LVU74
 338 004e 2DB2     		sxth	r5, r5
 339              	.LVL23:
 340              	.L10:
 234:Core/Src/game_engine.c ****         for(int16_t j = x - 1;  j < (x + 2); ++j) {
 341              		.loc 1 234 30 discriminator 1 view .LVU75
 342 0050 D346     		mov	fp, r10
 343 0052 0AF10103 		add	r3, r10, #1
 344 0056 A946     		mov	r9, r5
 234:Core/Src/game_engine.c ****         for(int16_t j = x - 1;  j < (x + 2); ++j) {
 345              		.loc 1 234 5 discriminator 1 view .LVU76
 346 0058 AB42     		cmp	r3, r5
 347 005a 01DB     		blt	.L18
 235:Core/Src/game_engine.c ****             if(i < 0 || j < 0 || j >= handle->field_width ||
 348              		.loc 1 235 9 is_stmt 1 view .LVU77
 349              	.LBB4:
 235:Core/Src/game_engine.c ****             if(i < 0 || j < 0 || j >= handle->field_width ||
 350              		.loc 1 235 13 view .LVU78
 235:Core/Src/game_engine.c ****             if(i < 0 || j < 0 || j >= handle->field_width ||
 351              		.loc 1 235 21 is_stmt 0 view .LVU79
 352 005c 741E     		subs	r4, r6, #1
 353              	.LVL24:
 235:Core/Src/game_engine.c ****             if(i < 0 || j < 0 || j >= handle->field_width ||
 354              		.loc 1 235 9 view .LVU80
 355 005e E2E7     		b	.L11
 356              	.LVL25:
 357              	.L18:
 235:Core/Src/game_engine.c ****             if(i < 0 || j < 0 || j >= handle->field_width ||
 358              		.loc 1 235 9 view .LVU81
 359              	.LBE4:
 360              	.LBE5:
 244:Core/Src/game_engine.c **** }
 361              		.loc 1 244 5 is_stmt 1 view .LVU82
 245:Core/Src/game_engine.c **** 
 362              		.loc 1 245 1 is_stmt 0 view .LVU83
 363 0060 4046     		mov	r0, r8
 364 0062 BDE8F88F 		pop	{r3, r4, r5, r6, r7, r8, r9, r10, fp, pc}
 245:Core/Src/game_engine.c **** 
 365              		.loc 1 245 1 view .LVU84
 366              		.cfi_endproc
 367              	.LFE9:
 369              		.section	.text.draw_cell,"ax",%progbits
 370              		.align	1
 371              		.global	draw_cell
 372              		.syntax unified
 373              		.thumb
 374              		.thumb_func
 375              		.fpu fpv4-sp-d16
 377              	draw_cell:
 378              	.LVL26:
 379              	.LFB15:
 272:Core/Src/game_engine.c **** 
 273:Core/Src/game_engine.c **** void draw_cell(uint8_t x, uint8_t y, game_handle *handle) {
 380              		.loc 1 273 59 is_stmt 1 view -0
 381              		.cfi_startproc
 382              		@ args = 0, pretend = 0, frame = 0
 383              		@ frame_needed = 0, uses_anonymous_args = 0
ARM GAS  /tmp/ccSDETij.s 			page 13


 384              		.loc 1 273 59 is_stmt 0 view .LVU86
 385 0000 70B5     		push	{r4, r5, r6, lr}
 386              	.LCFI9:
 387              		.cfi_def_cfa_offset 16
 388              		.cfi_offset 4, -16
 389              		.cfi_offset 5, -12
 390              		.cfi_offset 6, -8
 391              		.cfi_offset 14, -4
 392 0002 82B0     		sub	sp, sp, #8
 393              	.LCFI10:
 394              		.cfi_def_cfa_offset 24
 395 0004 0546     		mov	r5, r0
 396 0006 0E46     		mov	r6, r1
 397 0008 1446     		mov	r4, r2
 274:Core/Src/game_engine.c ****     if(game_is_cell_opened(x, y, handle)) {
 398              		.loc 1 274 5 is_stmt 1 view .LVU87
 399              		.loc 1 274 8 is_stmt 0 view .LVU88
 400 000a FFF7FEFF 		bl	game_is_cell_opened
 401              	.LVL27:
 402              		.loc 1 274 7 view .LVU89
 403 000e 0028     		cmp	r0, #0
 404 0010 7DD0     		beq	.L20
 275:Core/Src/game_engine.c ****         switch(game_get_cell_value(x, y, handle)) {
 405              		.loc 1 275 9 is_stmt 1 view .LVU90
 406              		.loc 1 275 16 is_stmt 0 view .LVU91
 407 0012 2246     		mov	r2, r4
 408 0014 3146     		mov	r1, r6
 409 0016 2846     		mov	r0, r5
 410 0018 FFF7FEFF 		bl	game_get_cell_value
 411              	.LVL28:
 412              		.loc 1 275 9 view .LVU92
 413 001c 0A28     		cmp	r0, #10
 414 001e 00F28680 		bhi	.L21
 415 0022 DFE800F0 		tbb	[pc, r0]
 416              	.L23:
 417 0026 5E       		.byte	(.L32-.L23)/2
 418 0027 06       		.byte	(.L31-.L23)/2
 419 0028 11       		.byte	(.L30-.L23)/2
 420 0029 1C       		.byte	(.L29-.L23)/2
 421 002a 27       		.byte	(.L28-.L23)/2
 422 002b 32       		.byte	(.L27-.L23)/2
 423 002c 3D       		.byte	(.L26-.L23)/2
 424 002d 48       		.byte	(.L25-.L23)/2
 425 002e 53       		.byte	(.L24-.L23)/2
 426 002f 84       		.byte	(.L21-.L23)/2
 427 0030 69       		.byte	(.L22-.L23)/2
 428 0031 00       		.p2align 1
 429              	.L31:
 276:Core/Src/game_engine.c ****             case 1:
 277:Core/Src/game_engine.c ****                 draw_picture(x * 16, y * 16, 16, 16, one, handle->graphics);
 430              		.loc 1 277 17 is_stmt 1 view .LVU93
 431 0032 A368     		ldr	r3, [r4, #8]
 432 0034 0193     		str	r3, [sp, #4]
 433 0036 4D4B     		ldr	r3, .L37
 434 0038 0093     		str	r3, [sp]
 435 003a 1023     		movs	r3, #16
 436 003c 1A46     		mov	r2, r3
ARM GAS  /tmp/ccSDETij.s 			page 14


 437 003e 3101     		lsls	r1, r6, #4
 438 0040 2801     		lsls	r0, r5, #4
 439 0042 FFF7FEFF 		bl	draw_picture
 440              	.LVL29:
 278:Core/Src/game_engine.c ****                 break;
 441              		.loc 1 278 17 view .LVU94
 442 0046 72E0     		b	.L21
 443              	.L30:
 279:Core/Src/game_engine.c ****             case 2:
 280:Core/Src/game_engine.c ****                 draw_picture(x * 16, y * 16, 16, 16, two, handle->graphics);
 444              		.loc 1 280 17 view .LVU95
 445 0048 A368     		ldr	r3, [r4, #8]
 446 004a 0193     		str	r3, [sp, #4]
 447 004c 484B     		ldr	r3, .L37+4
 448 004e 0093     		str	r3, [sp]
 449 0050 1023     		movs	r3, #16
 450 0052 1A46     		mov	r2, r3
 451 0054 3101     		lsls	r1, r6, #4
 452 0056 2801     		lsls	r0, r5, #4
 453 0058 FFF7FEFF 		bl	draw_picture
 454              	.LVL30:
 281:Core/Src/game_engine.c ****                 break;
 455              		.loc 1 281 17 view .LVU96
 456 005c 67E0     		b	.L21
 457              	.L29:
 282:Core/Src/game_engine.c ****             case 3:
 283:Core/Src/game_engine.c ****                 draw_picture(x * 16, y * 16, 16, 16, three, handle->graphics);
 458              		.loc 1 283 17 view .LVU97
 459 005e A368     		ldr	r3, [r4, #8]
 460 0060 0193     		str	r3, [sp, #4]
 461 0062 444B     		ldr	r3, .L37+8
 462 0064 0093     		str	r3, [sp]
 463 0066 1023     		movs	r3, #16
 464 0068 1A46     		mov	r2, r3
 465 006a 3101     		lsls	r1, r6, #4
 466 006c 2801     		lsls	r0, r5, #4
 467 006e FFF7FEFF 		bl	draw_picture
 468              	.LVL31:
 284:Core/Src/game_engine.c ****                 break;
 469              		.loc 1 284 17 view .LVU98
 470 0072 5CE0     		b	.L21
 471              	.L28:
 285:Core/Src/game_engine.c ****             case 4:
 286:Core/Src/game_engine.c ****                 draw_picture(x * 16, y * 16, 16, 16, four, handle->graphics);
 472              		.loc 1 286 17 view .LVU99
 473 0074 A368     		ldr	r3, [r4, #8]
 474 0076 0193     		str	r3, [sp, #4]
 475 0078 3F4B     		ldr	r3, .L37+12
 476 007a 0093     		str	r3, [sp]
 477 007c 1023     		movs	r3, #16
 478 007e 1A46     		mov	r2, r3
 479 0080 3101     		lsls	r1, r6, #4
 480 0082 2801     		lsls	r0, r5, #4
 481 0084 FFF7FEFF 		bl	draw_picture
 482              	.LVL32:
 287:Core/Src/game_engine.c ****                 break;
 483              		.loc 1 287 17 view .LVU100
ARM GAS  /tmp/ccSDETij.s 			page 15


 484 0088 51E0     		b	.L21
 485              	.L27:
 288:Core/Src/game_engine.c ****             case 5:
 289:Core/Src/game_engine.c ****                 draw_picture(x * 16, y * 16, 16, 16, five, handle->graphics);
 486              		.loc 1 289 17 view .LVU101
 487 008a A368     		ldr	r3, [r4, #8]
 488 008c 0193     		str	r3, [sp, #4]
 489 008e 3B4B     		ldr	r3, .L37+16
 490 0090 0093     		str	r3, [sp]
 491 0092 1023     		movs	r3, #16
 492 0094 1A46     		mov	r2, r3
 493 0096 3101     		lsls	r1, r6, #4
 494 0098 2801     		lsls	r0, r5, #4
 495 009a FFF7FEFF 		bl	draw_picture
 496              	.LVL33:
 290:Core/Src/game_engine.c ****                 break;
 497              		.loc 1 290 17 view .LVU102
 498 009e 46E0     		b	.L21
 499              	.L26:
 291:Core/Src/game_engine.c ****             case 6:
 292:Core/Src/game_engine.c ****                 draw_picture(x * 16, y * 16, 16, 16, six, handle->graphics);
 500              		.loc 1 292 17 view .LVU103
 501 00a0 A368     		ldr	r3, [r4, #8]
 502 00a2 0193     		str	r3, [sp, #4]
 503 00a4 364B     		ldr	r3, .L37+20
 504 00a6 0093     		str	r3, [sp]
 505 00a8 1023     		movs	r3, #16
 506 00aa 1A46     		mov	r2, r3
 507 00ac 3101     		lsls	r1, r6, #4
 508 00ae 2801     		lsls	r0, r5, #4
 509 00b0 FFF7FEFF 		bl	draw_picture
 510              	.LVL34:
 293:Core/Src/game_engine.c ****                 break;
 511              		.loc 1 293 17 view .LVU104
 512 00b4 3BE0     		b	.L21
 513              	.L25:
 294:Core/Src/game_engine.c ****             case 7:
 295:Core/Src/game_engine.c ****                 draw_picture(x * 16, y * 16, 16, 16, seven, handle->graphics);
 514              		.loc 1 295 17 view .LVU105
 515 00b6 A368     		ldr	r3, [r4, #8]
 516 00b8 0193     		str	r3, [sp, #4]
 517 00ba 324B     		ldr	r3, .L37+24
 518 00bc 0093     		str	r3, [sp]
 519 00be 1023     		movs	r3, #16
 520 00c0 1A46     		mov	r2, r3
 521 00c2 3101     		lsls	r1, r6, #4
 522 00c4 2801     		lsls	r0, r5, #4
 523 00c6 FFF7FEFF 		bl	draw_picture
 524              	.LVL35:
 296:Core/Src/game_engine.c ****                 break;
 525              		.loc 1 296 17 view .LVU106
 526 00ca 30E0     		b	.L21
 527              	.L24:
 297:Core/Src/game_engine.c ****             case 8:
 298:Core/Src/game_engine.c ****                 draw_picture(x * 16, y * 16, 16, 16, eight, handle->graphics);
 528              		.loc 1 298 17 view .LVU107
 529 00cc A368     		ldr	r3, [r4, #8]
ARM GAS  /tmp/ccSDETij.s 			page 16


 530 00ce 0193     		str	r3, [sp, #4]
 531 00d0 2D4B     		ldr	r3, .L37+28
 532 00d2 0093     		str	r3, [sp]
 533 00d4 1023     		movs	r3, #16
 534 00d6 1A46     		mov	r2, r3
 535 00d8 3101     		lsls	r1, r6, #4
 536 00da 2801     		lsls	r0, r5, #4
 537 00dc FFF7FEFF 		bl	draw_picture
 538              	.LVL36:
 299:Core/Src/game_engine.c ****                 break;
 539              		.loc 1 299 17 view .LVU108
 540 00e0 25E0     		b	.L21
 541              	.L32:
 300:Core/Src/game_engine.c ****             case 0:
 301:Core/Src/game_engine.c ****                 draw_picture(x * 16, y * 16, 16, 16, zero_cell, handle->graphics);
 542              		.loc 1 301 17 view .LVU109
 543 00e2 A368     		ldr	r3, [r4, #8]
 544 00e4 0193     		str	r3, [sp, #4]
 545 00e6 294B     		ldr	r3, .L37+32
 546 00e8 0093     		str	r3, [sp]
 547 00ea 1023     		movs	r3, #16
 548 00ec 1A46     		mov	r2, r3
 549 00ee 3101     		lsls	r1, r6, #4
 550 00f0 2801     		lsls	r0, r5, #4
 551 00f2 FFF7FEFF 		bl	draw_picture
 552              	.LVL37:
 302:Core/Src/game_engine.c ****                 break;
 553              		.loc 1 302 17 view .LVU110
 554 00f6 1AE0     		b	.L21
 555              	.L22:
 303:Core/Src/game_engine.c ****             case 10:
 304:Core/Src/game_engine.c ****                 draw_picture(x * 16, y * 16, 16, 16, bomb, handle->graphics);
 556              		.loc 1 304 17 view .LVU111
 557 00f8 A368     		ldr	r3, [r4, #8]
 558 00fa 0193     		str	r3, [sp, #4]
 559 00fc 244B     		ldr	r3, .L37+36
 560 00fe 0093     		str	r3, [sp]
 561 0100 1023     		movs	r3, #16
 562 0102 1A46     		mov	r2, r3
 563 0104 3101     		lsls	r1, r6, #4
 564 0106 2801     		lsls	r0, r5, #4
 565 0108 FFF7FEFF 		bl	draw_picture
 566              	.LVL38:
 305:Core/Src/game_engine.c ****                 break;
 567              		.loc 1 305 17 view .LVU112
 568 010c 0FE0     		b	.L21
 569              	.L20:
 306:Core/Src/game_engine.c ****         }
 307:Core/Src/game_engine.c ****     }
 308:Core/Src/game_engine.c ****     else {
 309:Core/Src/game_engine.c ****         if(game_is_cell_under_flag(x, y, handle)) {
 570              		.loc 1 309 9 view .LVU113
 571              		.loc 1 309 12 is_stmt 0 view .LVU114
 572 010e 2246     		mov	r2, r4
 573 0110 3146     		mov	r1, r6
 574 0112 2846     		mov	r0, r5
 575 0114 FFF7FEFF 		bl	game_is_cell_under_flag
ARM GAS  /tmp/ccSDETij.s 			page 17


 576              	.LVL39:
 577              		.loc 1 309 11 view .LVU115
 578 0118 70B1     		cbz	r0, .L33
 310:Core/Src/game_engine.c ****             draw_picture(x * 16, y * 16, 16, 16, flag, handle->graphics);
 579              		.loc 1 310 13 is_stmt 1 view .LVU116
 580 011a A368     		ldr	r3, [r4, #8]
 581 011c 0193     		str	r3, [sp, #4]
 582 011e 1D4B     		ldr	r3, .L37+40
 583 0120 0093     		str	r3, [sp]
 584 0122 1023     		movs	r3, #16
 585 0124 1A46     		mov	r2, r3
 586 0126 3101     		lsls	r1, r6, #4
 587 0128 2801     		lsls	r0, r5, #4
 588 012a FFF7FEFF 		bl	draw_picture
 589              	.LVL40:
 590              	.L21:
 311:Core/Src/game_engine.c ****         }
 312:Core/Src/game_engine.c ****         else {
 313:Core/Src/game_engine.c ****             draw_picture(x * 16, y * 16, 16, 16, not_opened_cell, handle->graphics);
 314:Core/Src/game_engine.c ****         }
 315:Core/Src/game_engine.c ****     }
 316:Core/Src/game_engine.c **** 
 317:Core/Src/game_engine.c ****     if(handle->player_pos_x == x && handle->player_pos_y == y) {
 591              		.loc 1 317 5 view .LVU117
 592              		.loc 1 317 14 is_stmt 0 view .LVU118
 593 012e 237B     		ldrb	r3, [r4, #12]	@ zero_extendqisi2
 594              		.loc 1 317 7 view .LVU119
 595 0130 AB42     		cmp	r3, r5
 596 0132 0CD0     		beq	.L36
 597              	.L19:
 318:Core/Src/game_engine.c ****         draw_picture_blend(x * 16, y * 16, 16, 16, selected_cell, handle->graphics);
 319:Core/Src/game_engine.c ****     }
 320:Core/Src/game_engine.c **** }
 598              		.loc 1 320 1 view .LVU120
 599 0134 02B0     		add	sp, sp, #8
 600              	.LCFI11:
 601              		.cfi_remember_state
 602              		.cfi_def_cfa_offset 16
 603              		@ sp needed
 604 0136 70BD     		pop	{r4, r5, r6, pc}
 605              	.LVL41:
 606              	.L33:
 607              	.LCFI12:
 608              		.cfi_restore_state
 313:Core/Src/game_engine.c ****         }
 609              		.loc 1 313 13 is_stmt 1 view .LVU121
 610 0138 A368     		ldr	r3, [r4, #8]
 611 013a 0193     		str	r3, [sp, #4]
 612 013c 164B     		ldr	r3, .L37+44
 613 013e 0093     		str	r3, [sp]
 614 0140 1023     		movs	r3, #16
 615 0142 1A46     		mov	r2, r3
 616 0144 3101     		lsls	r1, r6, #4
 617 0146 2801     		lsls	r0, r5, #4
 618 0148 FFF7FEFF 		bl	draw_picture
 619              	.LVL42:
 620 014c EFE7     		b	.L21
ARM GAS  /tmp/ccSDETij.s 			page 18


 621              	.L36:
 317:Core/Src/game_engine.c ****         draw_picture_blend(x * 16, y * 16, 16, 16, selected_cell, handle->graphics);
 622              		.loc 1 317 43 is_stmt 0 discriminator 1 view .LVU122
 623 014e 637B     		ldrb	r3, [r4, #13]	@ zero_extendqisi2
 317:Core/Src/game_engine.c ****         draw_picture_blend(x * 16, y * 16, 16, 16, selected_cell, handle->graphics);
 624              		.loc 1 317 34 discriminator 1 view .LVU123
 625 0150 B342     		cmp	r3, r6
 626 0152 EFD1     		bne	.L19
 318:Core/Src/game_engine.c ****         draw_picture_blend(x * 16, y * 16, 16, 16, selected_cell, handle->graphics);
 627              		.loc 1 318 9 is_stmt 1 view .LVU124
 628 0154 A368     		ldr	r3, [r4, #8]
 629 0156 0193     		str	r3, [sp, #4]
 630 0158 104B     		ldr	r3, .L37+48
 631 015a 0093     		str	r3, [sp]
 632 015c 1023     		movs	r3, #16
 633 015e 1A46     		mov	r2, r3
 634 0160 3101     		lsls	r1, r6, #4
 635 0162 2801     		lsls	r0, r5, #4
 636 0164 FFF7FEFF 		bl	draw_picture_blend
 637              	.LVL43:
 638              		.loc 1 320 1 is_stmt 0 view .LVU125
 639 0168 E4E7     		b	.L19
 640              	.L38:
 641 016a 00BF     		.align	2
 642              	.L37:
 643 016c 00000000 		.word	one
 644 0170 00000000 		.word	two
 645 0174 00000000 		.word	three
 646 0178 00000000 		.word	four
 647 017c 00000000 		.word	five
 648 0180 00000000 		.word	six
 649 0184 00000000 		.word	seven
 650 0188 00000000 		.word	eight
 651 018c 00000000 		.word	zero_cell
 652 0190 00000000 		.word	bomb
 653 0194 00000000 		.word	flag
 654 0198 00000000 		.word	not_opened_cell
 655 019c 00000000 		.word	selected_cell
 656              		.cfi_endproc
 657              	.LFE15:
 659              		.section	.text.game_start,"ax",%progbits
 660              		.align	1
 661              		.global	game_start
 662              		.syntax unified
 663              		.thumb
 664              		.thumb_func
 665              		.fpu fpv4-sp-d16
 667              	game_start:
 668              	.LVL44:
 669              	.LFB0:
   3:Core/Src/game_engine.c ****     handle->player_pos_x = handle->field_width / 2;
 670              		.loc 1 3 38 is_stmt 1 view -0
 671              		.cfi_startproc
 672              		@ args = 0, pretend = 0, frame = 0
 673              		@ frame_needed = 0, uses_anonymous_args = 0
   3:Core/Src/game_engine.c ****     handle->player_pos_x = handle->field_width / 2;
 674              		.loc 1 3 38 is_stmt 0 view .LVU127
ARM GAS  /tmp/ccSDETij.s 			page 19


 675 0000 70B5     		push	{r4, r5, r6, lr}
 676              	.LCFI13:
 677              		.cfi_def_cfa_offset 16
 678              		.cfi_offset 4, -16
 679              		.cfi_offset 5, -12
 680              		.cfi_offset 6, -8
 681              		.cfi_offset 14, -4
 682 0002 0546     		mov	r5, r0
   4:Core/Src/game_engine.c ****     handle->player_pos_y = handle->field_height / 2;
 683              		.loc 1 4 5 is_stmt 1 view .LVU128
   4:Core/Src/game_engine.c ****     handle->player_pos_y = handle->field_height / 2;
 684              		.loc 1 4 34 is_stmt 0 view .LVU129
 685 0004 0278     		ldrb	r2, [r0]	@ zero_extendqisi2
   4:Core/Src/game_engine.c ****     handle->player_pos_y = handle->field_height / 2;
 686              		.loc 1 4 26 view .LVU130
 687 0006 5308     		lsrs	r3, r2, #1
 688 0008 0373     		strb	r3, [r0, #12]
   5:Core/Src/game_engine.c ****     handle->mines_count = handle->field_width * handle->field_height / 5 * 1;
 689              		.loc 1 5 5 is_stmt 1 view .LVU131
   5:Core/Src/game_engine.c ****     handle->mines_count = handle->field_width * handle->field_height / 5 * 1;
 690              		.loc 1 5 34 is_stmt 0 view .LVU132
 691 000a 4378     		ldrb	r3, [r0, #1]	@ zero_extendqisi2
   5:Core/Src/game_engine.c ****     handle->mines_count = handle->field_width * handle->field_height / 5 * 1;
 692              		.loc 1 5 26 view .LVU133
 693 000c 5908     		lsrs	r1, r3, #1
 694 000e 4173     		strb	r1, [r0, #13]
   6:Core/Src/game_engine.c **** 
 695              		.loc 1 6 5 is_stmt 1 view .LVU134
   6:Core/Src/game_engine.c **** 
 696              		.loc 1 6 47 is_stmt 0 view .LVU135
 697 0010 03FB02F3 		mul	r3, r3, r2
   6:Core/Src/game_engine.c **** 
 698              		.loc 1 6 74 view .LVU136
 699 0014 124A     		ldr	r2, .L50
 700 0016 82FB0323 		smull	r2, r3, r2, r3
 701 001a 5B10     		asrs	r3, r3, #1
   6:Core/Src/game_engine.c **** 
 702              		.loc 1 6 25 view .LVU137
 703 001c C381     		strh	r3, [r0, #14]	@ movhi
   8:Core/Src/game_engine.c ****         handle->field[i] = 0b00000001;
 704              		.loc 1 8 5 is_stmt 1 view .LVU138
 705              	.LBB6:
   8:Core/Src/game_engine.c ****         handle->field[i] = 0b00000001;
 706              		.loc 1 8 9 view .LVU139
 707              	.LVL45:
   8:Core/Src/game_engine.c ****         handle->field[i] = 0b00000001;
 708              		.loc 1 8 13 is_stmt 0 view .LVU140
 709 001e 0022     		movs	r2, #0
 710              	.LVL46:
 711              	.L40:
   8:Core/Src/game_engine.c ****         handle->field[i] = 0b00000001;
 712              		.loc 1 8 30 discriminator 1 view .LVU141
 713 0020 2978     		ldrb	r1, [r5]	@ zero_extendqisi2
   8:Core/Src/game_engine.c ****         handle->field[i] = 0b00000001;
 714              		.loc 1 8 52 discriminator 1 view .LVU142
 715 0022 6B78     		ldrb	r3, [r5, #1]	@ zero_extendqisi2
   8:Core/Src/game_engine.c ****         handle->field[i] = 0b00000001;
ARM GAS  /tmp/ccSDETij.s 			page 20


 716              		.loc 1 8 44 discriminator 1 view .LVU143
 717 0024 03FB01F3 		mul	r3, r3, r1
   8:Core/Src/game_engine.c ****         handle->field[i] = 0b00000001;
 718              		.loc 1 8 5 discriminator 1 view .LVU144
 719 0028 9342     		cmp	r3, r2
 720 002a 04DD     		ble	.L47
   9:Core/Src/game_engine.c ****     }
 721              		.loc 1 9 9 is_stmt 1 discriminator 3 view .LVU145
   9:Core/Src/game_engine.c ****     }
 722              		.loc 1 9 15 is_stmt 0 discriminator 3 view .LVU146
 723 002c 6B68     		ldr	r3, [r5, #4]
   9:Core/Src/game_engine.c ****     }
 724              		.loc 1 9 26 discriminator 3 view .LVU147
 725 002e 0121     		movs	r1, #1
 726 0030 9954     		strb	r1, [r3, r2]
   8:Core/Src/game_engine.c ****         handle->field[i] = 0b00000001;
 727              		.loc 1 8 68 discriminator 3 view .LVU148
 728 0032 0A44     		add	r2, r2, r1
 729              	.LVL47:
   8:Core/Src/game_engine.c ****         handle->field[i] = 0b00000001;
 730              		.loc 1 8 68 discriminator 3 view .LVU149
 731 0034 F4E7     		b	.L40
 732              	.L47:
   8:Core/Src/game_engine.c ****         handle->field[i] = 0b00000001;
 733              		.loc 1 8 68 discriminator 3 view .LVU150
 734              	.LBE6:
 735              	.LBB7:
  12:Core/Src/game_engine.c ****         for(uint8_t j = 0; j < handle->field_width; ++j) {
 736              		.loc 1 12 17 view .LVU151
 737 0036 0026     		movs	r6, #0
 738 0038 01E0     		b	.L42
 739              	.LVL48:
 740              	.L49:
  12:Core/Src/game_engine.c ****         for(uint8_t j = 0; j < handle->field_width; ++j) {
 741              		.loc 1 12 50 discriminator 2 view .LVU152
 742 003a 0136     		adds	r6, r6, #1
 743              	.LVL49:
  12:Core/Src/game_engine.c ****         for(uint8_t j = 0; j < handle->field_width; ++j) {
 744              		.loc 1 12 50 discriminator 2 view .LVU153
 745 003c F6B2     		uxtb	r6, r6
 746              	.LVL50:
 747              	.L42:
  12:Core/Src/game_engine.c ****         for(uint8_t j = 0; j < handle->field_width; ++j) {
 748              		.loc 1 12 34 discriminator 1 view .LVU154
 749 003e 6B78     		ldrb	r3, [r5, #1]	@ zero_extendqisi2
  12:Core/Src/game_engine.c ****         for(uint8_t j = 0; j < handle->field_width; ++j) {
 750              		.loc 1 12 5 discriminator 1 view .LVU155
 751 0040 B342     		cmp	r3, r6
 752 0042 0BD9     		bls	.L48
 753              	.LBB8:
  13:Core/Src/game_engine.c ****             //draw_picture(j * 16, i * 16, 16, 16,
 754              		.loc 1 13 21 view .LVU156
 755 0044 0024     		movs	r4, #0
 756              	.L44:
 757              	.LVL51:
  13:Core/Src/game_engine.c ****             //draw_picture(j * 16, i * 16, 16, 16,
 758              		.loc 1 13 38 discriminator 1 view .LVU157
ARM GAS  /tmp/ccSDETij.s 			page 21


 759 0046 2B78     		ldrb	r3, [r5]	@ zero_extendqisi2
  13:Core/Src/game_engine.c ****             //draw_picture(j * 16, i * 16, 16, 16,
 760              		.loc 1 13 9 discriminator 1 view .LVU158
 761 0048 A342     		cmp	r3, r4
 762 004a F6D9     		bls	.L49
  16:Core/Src/game_engine.c ****         }
 763              		.loc 1 16 13 is_stmt 1 discriminator 3 view .LVU159
 764 004c 2A46     		mov	r2, r5
 765 004e 3146     		mov	r1, r6
 766 0050 2046     		mov	r0, r4
 767 0052 FFF7FEFF 		bl	draw_cell
 768              	.LVL52:
  13:Core/Src/game_engine.c ****             //draw_picture(j * 16, i * 16, 16, 16,
 769              		.loc 1 13 53 is_stmt 0 discriminator 3 view .LVU160
 770 0056 0134     		adds	r4, r4, #1
 771              	.LVL53:
  13:Core/Src/game_engine.c ****             //draw_picture(j * 16, i * 16, 16, 16,
 772              		.loc 1 13 53 discriminator 3 view .LVU161
 773 0058 E4B2     		uxtb	r4, r4
 774              	.LVL54:
  13:Core/Src/game_engine.c ****             //draw_picture(j * 16, i * 16, 16, 16,
 775              		.loc 1 13 53 discriminator 3 view .LVU162
 776 005a F4E7     		b	.L44
 777              	.LVL55:
 778              	.L48:
  13:Core/Src/game_engine.c ****             //draw_picture(j * 16, i * 16, 16, 16,
 779              		.loc 1 13 53 discriminator 3 view .LVU163
 780              	.LBE8:
 781              	.LBE7:
  22:Core/Src/game_engine.c **** 
 782              		.loc 1 22 1 view .LVU164
 783 005c 70BD     		pop	{r4, r5, r6, pc}
 784              	.LVL56:
 785              	.L51:
  22:Core/Src/game_engine.c **** 
 786              		.loc 1 22 1 view .LVU165
 787 005e 00BF     		.align	2
 788              	.L50:
 789 0060 67666666 		.word	1717986919
 790              		.cfi_endproc
 791              	.LFE0:
 793              		.section	.text.game_player_move,"ax",%progbits
 794              		.align	1
 795              		.global	game_player_move
 796              		.syntax unified
 797              		.thumb
 798              		.thumb_func
 799              		.fpu fpv4-sp-d16
 801              	game_player_move:
 802              	.LVL57:
 803              	.LFB1:
  24:Core/Src/game_engine.c ****     uint8_t old_x = handle->player_pos_x;
 804              		.loc 1 24 64 is_stmt 1 view -0
 805              		.cfi_startproc
 806              		@ args = 0, pretend = 0, frame = 0
 807              		@ frame_needed = 0, uses_anonymous_args = 0
  24:Core/Src/game_engine.c ****     uint8_t old_x = handle->player_pos_x;
ARM GAS  /tmp/ccSDETij.s 			page 22


 808              		.loc 1 24 64 is_stmt 0 view .LVU167
 809 0000 38B5     		push	{r3, r4, r5, lr}
 810              	.LCFI14:
 811              		.cfi_def_cfa_offset 16
 812              		.cfi_offset 3, -16
 813              		.cfi_offset 4, -12
 814              		.cfi_offset 5, -8
 815              		.cfi_offset 14, -4
 816 0002 0B46     		mov	r3, r1
 817 0004 1446     		mov	r4, r2
  25:Core/Src/game_engine.c ****     uint8_t old_y = handle->player_pos_y;
 818              		.loc 1 25 5 is_stmt 1 view .LVU168
  25:Core/Src/game_engine.c ****     uint8_t old_y = handle->player_pos_y;
 819              		.loc 1 25 13 is_stmt 0 view .LVU169
 820 0006 157B     		ldrb	r5, [r2, #12]	@ zero_extendqisi2
 821              	.LVL58:
  26:Core/Src/game_engine.c ****     if(x) {
 822              		.loc 1 26 5 is_stmt 1 view .LVU170
  26:Core/Src/game_engine.c ****     if(x) {
 823              		.loc 1 26 13 is_stmt 0 view .LVU171
 824 0008 517B     		ldrb	r1, [r2, #13]	@ zero_extendqisi2
 825              	.LVL59:
  27:Core/Src/game_engine.c ****         //draw_picture(handle->player_pos_x * 16, handle->player_pos_y * 16,
 826              		.loc 1 27 5 is_stmt 1 view .LVU172
  27:Core/Src/game_engine.c ****         //draw_picture(handle->player_pos_x * 16, handle->player_pos_y * 16,
 827              		.loc 1 27 7 is_stmt 0 view .LVU173
 828 000a 50B1     		cbz	r0, .L53
 829 000c 0246     		mov	r2, r0
 830              	.LVL60:
  30:Core/Src/game_engine.c ****             handle->player_pos_x = handle->field_width - 1;
 831              		.loc 1 30 9 is_stmt 1 view .LVU174
  30:Core/Src/game_engine.c ****             handle->player_pos_x = handle->field_width - 1;
 832              		.loc 1 30 11 is_stmt 0 view .LVU175
 833 000e 0028     		cmp	r0, #0
 834 0010 1CDB     		blt	.L58
 835              	.L54:
  34:Core/Src/game_engine.c ****             if(handle->player_pos_x >= handle->field_width) {
 836              		.loc 1 34 13 is_stmt 1 view .LVU176
  34:Core/Src/game_engine.c ****             if(handle->player_pos_x >= handle->field_width) {
 837              		.loc 1 34 34 is_stmt 0 view .LVU177
 838 0012 2A44     		add	r2, r2, r5
 839 0014 D2B2     		uxtb	r2, r2
 840 0016 2273     		strb	r2, [r4, #12]
  35:Core/Src/game_engine.c ****                 handle->player_pos_x = 0;
 841              		.loc 1 35 13 is_stmt 1 view .LVU178
  35:Core/Src/game_engine.c ****                 handle->player_pos_x = 0;
 842              		.loc 1 35 46 is_stmt 0 view .LVU179
 843 0018 2078     		ldrb	r0, [r4]	@ zero_extendqisi2
 844              	.LVL61:
  35:Core/Src/game_engine.c ****                 handle->player_pos_x = 0;
 845              		.loc 1 35 15 view .LVU180
 846 001a 8242     		cmp	r2, r0
 847 001c 01D3     		bcc	.L53
  36:Core/Src/game_engine.c ****             }
 848              		.loc 1 36 17 is_stmt 1 view .LVU181
  36:Core/Src/game_engine.c ****             }
 849              		.loc 1 36 38 is_stmt 0 view .LVU182
ARM GAS  /tmp/ccSDETij.s 			page 23


 850 001e 0022     		movs	r2, #0
 851 0020 2273     		strb	r2, [r4, #12]
 852              	.L53:
  44:Core/Src/game_engine.c ****         //draw_picture(handle->player_pos_x * 16, handle->player_pos_y * 16,
 853              		.loc 1 44 5 is_stmt 1 view .LVU183
  44:Core/Src/game_engine.c ****         //draw_picture(handle->player_pos_x * 16, handle->player_pos_y * 16,
 854              		.loc 1 44 7 is_stmt 0 view .LVU184
 855 0022 4BB1     		cbz	r3, .L55
  47:Core/Src/game_engine.c ****             handle->player_pos_y = handle->field_height - 1;
 856              		.loc 1 47 9 is_stmt 1 view .LVU185
  47:Core/Src/game_engine.c ****             handle->player_pos_y = handle->field_height - 1;
 857              		.loc 1 47 11 is_stmt 0 view .LVU186
 858 0024 002B     		cmp	r3, #0
 859 0026 17DB     		blt	.L59
 860              	.L56:
  51:Core/Src/game_engine.c ****             if(handle->player_pos_y >= handle->field_height) {
 861              		.loc 1 51 13 is_stmt 1 view .LVU187
  51:Core/Src/game_engine.c ****             if(handle->player_pos_y >= handle->field_height) {
 862              		.loc 1 51 34 is_stmt 0 view .LVU188
 863 0028 0B44     		add	r3, r3, r1
 864 002a DBB2     		uxtb	r3, r3
 865 002c 6373     		strb	r3, [r4, #13]
  52:Core/Src/game_engine.c ****                 handle->player_pos_y = 0;
 866              		.loc 1 52 13 is_stmt 1 view .LVU189
  52:Core/Src/game_engine.c ****                 handle->player_pos_y = 0;
 867              		.loc 1 52 46 is_stmt 0 view .LVU190
 868 002e 6278     		ldrb	r2, [r4, #1]	@ zero_extendqisi2
  52:Core/Src/game_engine.c ****                 handle->player_pos_y = 0;
 869              		.loc 1 52 15 view .LVU191
 870 0030 9342     		cmp	r3, r2
 871 0032 01D3     		bcc	.L55
  53:Core/Src/game_engine.c ****             }
 872              		.loc 1 53 17 is_stmt 1 view .LVU192
  53:Core/Src/game_engine.c ****             }
 873              		.loc 1 53 38 is_stmt 0 view .LVU193
 874 0034 0023     		movs	r3, #0
 875 0036 6373     		strb	r3, [r4, #13]
 876              	.L55:
  61:Core/Src/game_engine.c ****     draw_cell(handle->player_pos_x, handle->player_pos_y, handle);
 877              		.loc 1 61 5 is_stmt 1 view .LVU194
 878 0038 2246     		mov	r2, r4
 879 003a 2846     		mov	r0, r5
 880 003c FFF7FEFF 		bl	draw_cell
 881              	.LVL62:
  62:Core/Src/game_engine.c **** }
 882              		.loc 1 62 5 view .LVU195
 883 0040 2246     		mov	r2, r4
 884 0042 617B     		ldrb	r1, [r4, #13]	@ zero_extendqisi2
 885 0044 207B     		ldrb	r0, [r4, #12]	@ zero_extendqisi2
 886 0046 FFF7FEFF 		bl	draw_cell
 887              	.LVL63:
  63:Core/Src/game_engine.c **** 
 888              		.loc 1 63 1 is_stmt 0 view .LVU196
 889 004a 38BD     		pop	{r3, r4, r5, pc}
 890              	.LVL64:
 891              	.L58:
  30:Core/Src/game_engine.c ****             handle->player_pos_x = handle->field_width - 1;
ARM GAS  /tmp/ccSDETij.s 			page 24


 892              		.loc 1 30 18 discriminator 1 view .LVU197
 893 004c 002D     		cmp	r5, #0
 894 004e E0D1     		bne	.L54
  31:Core/Src/game_engine.c ****         }
 895              		.loc 1 31 13 is_stmt 1 view .LVU198
  31:Core/Src/game_engine.c ****         }
 896              		.loc 1 31 42 is_stmt 0 view .LVU199
 897 0050 2278     		ldrb	r2, [r4]	@ zero_extendqisi2
  31:Core/Src/game_engine.c ****         }
 898              		.loc 1 31 56 view .LVU200
 899 0052 013A     		subs	r2, r2, #1
  31:Core/Src/game_engine.c ****         }
 900              		.loc 1 31 34 view .LVU201
 901 0054 2273     		strb	r2, [r4, #12]
 902 0056 E4E7     		b	.L53
 903              	.LVL65:
 904              	.L59:
  47:Core/Src/game_engine.c ****             handle->player_pos_y = handle->field_height - 1;
 905              		.loc 1 47 18 discriminator 1 view .LVU202
 906 0058 0029     		cmp	r1, #0
 907 005a E5D1     		bne	.L56
  48:Core/Src/game_engine.c ****         }
 908              		.loc 1 48 13 is_stmt 1 view .LVU203
  48:Core/Src/game_engine.c ****         }
 909              		.loc 1 48 42 is_stmt 0 view .LVU204
 910 005c 6378     		ldrb	r3, [r4, #1]	@ zero_extendqisi2
  48:Core/Src/game_engine.c ****         }
 911              		.loc 1 48 57 view .LVU205
 912 005e 013B     		subs	r3, r3, #1
  48:Core/Src/game_engine.c ****         }
 913              		.loc 1 48 34 view .LVU206
 914 0060 6373     		strb	r3, [r4, #13]
 915 0062 E9E7     		b	.L55
 916              		.cfi_endproc
 917              	.LFE1:
 919              		.section	.text.game_player_move_up,"ax",%progbits
 920              		.align	1
 921              		.global	game_player_move_up
 922              		.syntax unified
 923              		.thumb
 924              		.thumb_func
 925              		.fpu fpv4-sp-d16
 927              	game_player_move_up:
 928              	.LVL66:
 929              	.LFB2:
  65:Core/Src/game_engine.c ****     game_player_move(0, -1, handle);
 930              		.loc 1 65 47 is_stmt 1 view -0
 931              		.cfi_startproc
 932              		@ args = 0, pretend = 0, frame = 0
 933              		@ frame_needed = 0, uses_anonymous_args = 0
  65:Core/Src/game_engine.c ****     game_player_move(0, -1, handle);
 934              		.loc 1 65 47 is_stmt 0 view .LVU208
 935 0000 08B5     		push	{r3, lr}
 936              	.LCFI15:
 937              		.cfi_def_cfa_offset 8
 938              		.cfi_offset 3, -8
 939              		.cfi_offset 14, -4
ARM GAS  /tmp/ccSDETij.s 			page 25


  66:Core/Src/game_engine.c ****     return;
 940              		.loc 1 66 5 is_stmt 1 view .LVU209
 941 0002 0246     		mov	r2, r0
 942 0004 4FF0FF31 		mov	r1, #-1
 943 0008 0020     		movs	r0, #0
 944              	.LVL67:
  66:Core/Src/game_engine.c ****     return;
 945              		.loc 1 66 5 is_stmt 0 view .LVU210
 946 000a FFF7FEFF 		bl	game_player_move
 947              	.LVL68:
  67:Core/Src/game_engine.c **** }
 948              		.loc 1 67 5 is_stmt 1 view .LVU211
  68:Core/Src/game_engine.c **** 
 949              		.loc 1 68 1 is_stmt 0 view .LVU212
 950 000e 08BD     		pop	{r3, pc}
 951              		.cfi_endproc
 952              	.LFE2:
 954              		.section	.text.game_player_move_down,"ax",%progbits
 955              		.align	1
 956              		.global	game_player_move_down
 957              		.syntax unified
 958              		.thumb
 959              		.thumb_func
 960              		.fpu fpv4-sp-d16
 962              	game_player_move_down:
 963              	.LVL69:
 964              	.LFB3:
  70:Core/Src/game_engine.c ****     game_player_move(0, 1, handle);
 965              		.loc 1 70 49 is_stmt 1 view -0
 966              		.cfi_startproc
 967              		@ args = 0, pretend = 0, frame = 0
 968              		@ frame_needed = 0, uses_anonymous_args = 0
  70:Core/Src/game_engine.c ****     game_player_move(0, 1, handle);
 969              		.loc 1 70 49 is_stmt 0 view .LVU214
 970 0000 08B5     		push	{r3, lr}
 971              	.LCFI16:
 972              		.cfi_def_cfa_offset 8
 973              		.cfi_offset 3, -8
 974              		.cfi_offset 14, -4
  71:Core/Src/game_engine.c ****     return;
 975              		.loc 1 71 5 is_stmt 1 view .LVU215
 976 0002 0246     		mov	r2, r0
 977 0004 0121     		movs	r1, #1
 978 0006 0020     		movs	r0, #0
 979              	.LVL70:
  71:Core/Src/game_engine.c ****     return;
 980              		.loc 1 71 5 is_stmt 0 view .LVU216
 981 0008 FFF7FEFF 		bl	game_player_move
 982              	.LVL71:
  72:Core/Src/game_engine.c **** }
 983              		.loc 1 72 5 is_stmt 1 view .LVU217
  73:Core/Src/game_engine.c **** 
 984              		.loc 1 73 1 is_stmt 0 view .LVU218
 985 000c 08BD     		pop	{r3, pc}
 986              		.cfi_endproc
 987              	.LFE3:
 989              		.section	.text.game_player_move_left,"ax",%progbits
ARM GAS  /tmp/ccSDETij.s 			page 26


 990              		.align	1
 991              		.global	game_player_move_left
 992              		.syntax unified
 993              		.thumb
 994              		.thumb_func
 995              		.fpu fpv4-sp-d16
 997              	game_player_move_left:
 998              	.LVL72:
 999              	.LFB4:
  75:Core/Src/game_engine.c ****     game_player_move(-1, 0, handle);
 1000              		.loc 1 75 49 is_stmt 1 view -0
 1001              		.cfi_startproc
 1002              		@ args = 0, pretend = 0, frame = 0
 1003              		@ frame_needed = 0, uses_anonymous_args = 0
  75:Core/Src/game_engine.c ****     game_player_move(-1, 0, handle);
 1004              		.loc 1 75 49 is_stmt 0 view .LVU220
 1005 0000 08B5     		push	{r3, lr}
 1006              	.LCFI17:
 1007              		.cfi_def_cfa_offset 8
 1008              		.cfi_offset 3, -8
 1009              		.cfi_offset 14, -4
  76:Core/Src/game_engine.c ****     return;
 1010              		.loc 1 76 5 is_stmt 1 view .LVU221
 1011 0002 0246     		mov	r2, r0
 1012 0004 0021     		movs	r1, #0
 1013 0006 4FF0FF30 		mov	r0, #-1
 1014              	.LVL73:
  76:Core/Src/game_engine.c ****     return;
 1015              		.loc 1 76 5 is_stmt 0 view .LVU222
 1016 000a FFF7FEFF 		bl	game_player_move
 1017              	.LVL74:
  77:Core/Src/game_engine.c **** }
 1018              		.loc 1 77 5 is_stmt 1 view .LVU223
  78:Core/Src/game_engine.c **** 
 1019              		.loc 1 78 1 is_stmt 0 view .LVU224
 1020 000e 08BD     		pop	{r3, pc}
 1021              		.cfi_endproc
 1022              	.LFE4:
 1024              		.section	.text.game_player_move_right,"ax",%progbits
 1025              		.align	1
 1026              		.global	game_player_move_right
 1027              		.syntax unified
 1028              		.thumb
 1029              		.thumb_func
 1030              		.fpu fpv4-sp-d16
 1032              	game_player_move_right:
 1033              	.LVL75:
 1034              	.LFB5:
  80:Core/Src/game_engine.c ****     game_player_move(1, 0, handle);
 1035              		.loc 1 80 50 is_stmt 1 view -0
 1036              		.cfi_startproc
 1037              		@ args = 0, pretend = 0, frame = 0
 1038              		@ frame_needed = 0, uses_anonymous_args = 0
  80:Core/Src/game_engine.c ****     game_player_move(1, 0, handle);
 1039              		.loc 1 80 50 is_stmt 0 view .LVU226
 1040 0000 08B5     		push	{r3, lr}
 1041              	.LCFI18:
ARM GAS  /tmp/ccSDETij.s 			page 27


 1042              		.cfi_def_cfa_offset 8
 1043              		.cfi_offset 3, -8
 1044              		.cfi_offset 14, -4
  81:Core/Src/game_engine.c ****     return;
 1045              		.loc 1 81 5 is_stmt 1 view .LVU227
 1046 0002 0246     		mov	r2, r0
 1047 0004 0021     		movs	r1, #0
 1048 0006 0120     		movs	r0, #1
 1049              	.LVL76:
  81:Core/Src/game_engine.c ****     return;
 1050              		.loc 1 81 5 is_stmt 0 view .LVU228
 1051 0008 FFF7FEFF 		bl	game_player_move
 1052              	.LVL77:
  82:Core/Src/game_engine.c **** }
 1053              		.loc 1 82 5 is_stmt 1 view .LVU229
  83:Core/Src/game_engine.c **** 
 1054              		.loc 1 83 1 is_stmt 0 view .LVU230
 1055 000c 08BD     		pop	{r3, pc}
 1056              		.cfi_endproc
 1057              	.LFE5:
 1059              		.section	.text.game_player_put_flag,"ax",%progbits
 1060              		.align	1
 1061              		.global	game_player_put_flag
 1062              		.syntax unified
 1063              		.thumb
 1064              		.thumb_func
 1065              		.fpu fpv4-sp-d16
 1067              	game_player_put_flag:
 1068              	.LVL78:
 1069              	.LFB6:
  85:Core/Src/game_engine.c ****     if(!game_is_cell_opened(handle->player_pos_x, handle->player_pos_y, handle)) {
 1070              		.loc 1 85 48 is_stmt 1 view -0
 1071              		.cfi_startproc
 1072              		@ args = 0, pretend = 0, frame = 0
 1073              		@ frame_needed = 0, uses_anonymous_args = 0
  85:Core/Src/game_engine.c ****     if(!game_is_cell_opened(handle->player_pos_x, handle->player_pos_y, handle)) {
 1074              		.loc 1 85 48 is_stmt 0 view .LVU232
 1075 0000 70B5     		push	{r4, r5, r6, lr}
 1076              	.LCFI19:
 1077              		.cfi_def_cfa_offset 16
 1078              		.cfi_offset 4, -16
 1079              		.cfi_offset 5, -12
 1080              		.cfi_offset 6, -8
 1081              		.cfi_offset 14, -4
 1082 0002 0446     		mov	r4, r0
  86:Core/Src/game_engine.c ****         if(game_is_cell_under_flag(handle->player_pos_x, handle->player_pos_y, handle)) {
 1083              		.loc 1 86 5 is_stmt 1 view .LVU233
  86:Core/Src/game_engine.c ****         if(game_is_cell_under_flag(handle->player_pos_x, handle->player_pos_y, handle)) {
 1084              		.loc 1 86 9 is_stmt 0 view .LVU234
 1085 0004 067B     		ldrb	r6, [r0, #12]	@ zero_extendqisi2
 1086 0006 457B     		ldrb	r5, [r0, #13]	@ zero_extendqisi2
 1087 0008 0246     		mov	r2, r0
 1088 000a 2946     		mov	r1, r5
 1089 000c 3046     		mov	r0, r6
 1090              	.LVL79:
  86:Core/Src/game_engine.c ****         if(game_is_cell_under_flag(handle->player_pos_x, handle->player_pos_y, handle)) {
 1091              		.loc 1 86 9 view .LVU235
ARM GAS  /tmp/ccSDETij.s 			page 28


 1092 000e FFF7FEFF 		bl	game_is_cell_opened
 1093              	.LVL80:
  86:Core/Src/game_engine.c ****         if(game_is_cell_under_flag(handle->player_pos_x, handle->player_pos_y, handle)) {
 1094              		.loc 1 86 7 view .LVU236
 1095 0012 88B9     		cbnz	r0, .L68
  87:Core/Src/game_engine.c ****             handle->field[handle->player_pos_x + handle->player_pos_y * handle->field_width] -= 2;
 1096              		.loc 1 87 9 is_stmt 1 view .LVU237
  87:Core/Src/game_engine.c ****             handle->field[handle->player_pos_x + handle->player_pos_y * handle->field_width] -= 2;
 1097              		.loc 1 87 12 is_stmt 0 view .LVU238
 1098 0014 2246     		mov	r2, r4
 1099 0016 2946     		mov	r1, r5
 1100 0018 3046     		mov	r0, r6
 1101 001a FFF7FEFF 		bl	game_is_cell_under_flag
 1102              	.LVL81:
  87:Core/Src/game_engine.c ****             handle->field[handle->player_pos_x + handle->player_pos_y * handle->field_width] -= 2;
 1103              		.loc 1 87 11 view .LVU239
 1104 001e 60B1     		cbz	r0, .L70
  88:Core/Src/game_engine.c ****         }
 1105              		.loc 1 88 13 is_stmt 1 view .LVU240
  88:Core/Src/game_engine.c ****         }
 1106              		.loc 1 88 19 is_stmt 0 view .LVU241
 1107 0020 6268     		ldr	r2, [r4, #4]
  88:Core/Src/game_engine.c ****         }
 1108              		.loc 1 88 79 view .LVU242
 1109 0022 2378     		ldrb	r3, [r4]	@ zero_extendqisi2
  88:Core/Src/game_engine.c ****         }
 1110              		.loc 1 88 94 view .LVU243
 1111 0024 03FB0565 		mla	r5, r3, r5, r6
 1112 0028 535D     		ldrb	r3, [r2, r5]	@ zero_extendqisi2
 1113 002a 023B     		subs	r3, r3, #2
 1114 002c 5355     		strb	r3, [r2, r5]
 1115              	.L71:
  93:Core/Src/game_engine.c ****     }
 1116              		.loc 1 93 9 is_stmt 1 view .LVU244
 1117 002e 2246     		mov	r2, r4
 1118 0030 617B     		ldrb	r1, [r4, #13]	@ zero_extendqisi2
 1119 0032 207B     		ldrb	r0, [r4, #12]	@ zero_extendqisi2
 1120 0034 FFF7FEFF 		bl	draw_cell
 1121              	.LVL82:
  95:Core/Src/game_engine.c **** }
 1122              		.loc 1 95 5 view .LVU245
 1123              	.L68:
  96:Core/Src/game_engine.c **** 
 1124              		.loc 1 96 1 is_stmt 0 view .LVU246
 1125 0038 70BD     		pop	{r4, r5, r6, pc}
 1126              	.LVL83:
 1127              	.L70:
  91:Core/Src/game_engine.c ****         }
 1128              		.loc 1 91 13 is_stmt 1 view .LVU247
  91:Core/Src/game_engine.c ****         }
 1129              		.loc 1 91 19 is_stmt 0 view .LVU248
 1130 003a 6268     		ldr	r2, [r4, #4]
  91:Core/Src/game_engine.c ****         }
 1131              		.loc 1 91 79 view .LVU249
 1132 003c 2378     		ldrb	r3, [r4]	@ zero_extendqisi2
  91:Core/Src/game_engine.c ****         }
 1133              		.loc 1 91 94 view .LVU250
ARM GAS  /tmp/ccSDETij.s 			page 29


 1134 003e 03FB0565 		mla	r5, r3, r5, r6
 1135 0042 535D     		ldrb	r3, [r2, r5]	@ zero_extendqisi2
 1136 0044 0233     		adds	r3, r3, #2
 1137 0046 5355     		strb	r3, [r2, r5]
 1138 0048 F1E7     		b	.L71
 1139              		.cfi_endproc
 1140              	.LFE6:
 1142              		.section	.text.game_set_cell_opened,"ax",%progbits
 1143              		.align	1
 1144              		.global	game_set_cell_opened
 1145              		.syntax unified
 1146              		.thumb
 1147              		.thumb_func
 1148              		.fpu fpv4-sp-d16
 1150              	game_set_cell_opened:
 1151              	.LVL84:
 1152              	.LFB13:
 261:Core/Src/game_engine.c ****     if(!game_is_cell_opened(x, y, handle)) {
 1153              		.loc 1 261 70 is_stmt 1 view -0
 1154              		.cfi_startproc
 1155              		@ args = 0, pretend = 0, frame = 0
 1156              		@ frame_needed = 0, uses_anonymous_args = 0
 261:Core/Src/game_engine.c ****     if(!game_is_cell_opened(x, y, handle)) {
 1157              		.loc 1 261 70 is_stmt 0 view .LVU252
 1158 0000 70B5     		push	{r4, r5, r6, lr}
 1159              	.LCFI20:
 1160              		.cfi_def_cfa_offset 16
 1161              		.cfi_offset 4, -16
 1162              		.cfi_offset 5, -12
 1163              		.cfi_offset 6, -8
 1164              		.cfi_offset 14, -4
 1165 0002 0546     		mov	r5, r0
 1166 0004 0E46     		mov	r6, r1
 1167 0006 1446     		mov	r4, r2
 262:Core/Src/game_engine.c ****         handle->field[y * handle->field_width + x] -= 1;
 1168              		.loc 1 262 5 is_stmt 1 view .LVU253
 262:Core/Src/game_engine.c ****         handle->field[y * handle->field_width + x] -= 1;
 1169              		.loc 1 262 9 is_stmt 0 view .LVU254
 1170 0008 FFF7FEFF 		bl	game_is_cell_opened
 1171              	.LVL85:
 262:Core/Src/game_engine.c ****         handle->field[y * handle->field_width + x] -= 1;
 1172              		.loc 1 262 7 view .LVU255
 1173 000c 00B1     		cbz	r0, .L76
 1174              	.L73:
 267:Core/Src/game_engine.c **** 
 1175              		.loc 1 267 1 view .LVU256
 1176 000e 70BD     		pop	{r4, r5, r6, pc}
 1177              	.LVL86:
 1178              	.L76:
 263:Core/Src/game_engine.c ****         draw_cell(x, y, handle);
 1179              		.loc 1 263 9 is_stmt 1 view .LVU257
 263:Core/Src/game_engine.c ****         draw_cell(x, y, handle);
 1180              		.loc 1 263 15 is_stmt 0 view .LVU258
 1181 0010 6168     		ldr	r1, [r4, #4]
 263:Core/Src/game_engine.c ****         draw_cell(x, y, handle);
 1182              		.loc 1 263 33 view .LVU259
 1183 0012 2378     		ldrb	r3, [r4]	@ zero_extendqisi2
ARM GAS  /tmp/ccSDETij.s 			page 30


 263:Core/Src/game_engine.c ****         draw_cell(x, y, handle);
 1184              		.loc 1 263 52 view .LVU260
 1185 0014 03FB0653 		mla	r3, r3, r6, r5
 1186 0018 CA5C     		ldrb	r2, [r1, r3]	@ zero_extendqisi2
 1187 001a 013A     		subs	r2, r2, #1
 1188 001c CA54     		strb	r2, [r1, r3]
 264:Core/Src/game_engine.c ****     }
 1189              		.loc 1 264 9 is_stmt 1 view .LVU261
 1190 001e 2246     		mov	r2, r4
 1191 0020 3146     		mov	r1, r6
 1192 0022 2846     		mov	r0, r5
 1193 0024 FFF7FEFF 		bl	draw_cell
 1194              	.LVL87:
 266:Core/Src/game_engine.c **** }
 1195              		.loc 1 266 5 view .LVU262
 1196 0028 F1E7     		b	.L73
 1197              		.cfi_endproc
 1198              	.LFE13:
 1200              		.section	.text.game_open_cells_recursive,"ax",%progbits
 1201              		.align	1
 1202              		.global	game_open_cells_recursive
 1203              		.syntax unified
 1204              		.thumb
 1205              		.thumb_func
 1206              		.fpu fpv4-sp-d16
 1208              	game_open_cells_recursive:
 1209              	.LVL88:
 1210              	.LFB8:
 182:Core/Src/game_engine.c ****     //int q = 0;
 1211              		.loc 1 182 75 view -0
 1212              		.cfi_startproc
 1213              		@ args = 0, pretend = 0, frame = 8
 1214              		@ frame_needed = 0, uses_anonymous_args = 0
 182:Core/Src/game_engine.c ****     //int q = 0;
 1215              		.loc 1 182 75 is_stmt 0 view .LVU264
 1216 0000 2DE9F04F 		push	{r4, r5, r6, r7, r8, r9, r10, fp, lr}
 1217              	.LCFI21:
 1218              		.cfi_def_cfa_offset 36
 1219              		.cfi_offset 4, -36
 1220              		.cfi_offset 5, -32
 1221              		.cfi_offset 6, -28
 1222              		.cfi_offset 7, -24
 1223              		.cfi_offset 8, -20
 1224              		.cfi_offset 9, -16
 1225              		.cfi_offset 10, -12
 1226              		.cfi_offset 11, -8
 1227              		.cfi_offset 14, -4
 1228 0004 83B0     		sub	sp, sp, #12
 1229              	.LCFI22:
 1230              		.cfi_def_cfa_offset 48
 1231 0006 0746     		mov	r7, r0
 1232 0008 0C46     		mov	r4, r1
 1233 000a 0191     		str	r1, [sp, #4]
 1234 000c 1546     		mov	r5, r2
 188:Core/Src/game_engine.c ****         return;
 1235              		.loc 1 188 5 is_stmt 1 view .LVU265
 188:Core/Src/game_engine.c ****         return;
ARM GAS  /tmp/ccSDETij.s 			page 31


 1236              		.loc 1 188 8 is_stmt 0 view .LVU266
 1237 000e FFF7FEFF 		bl	game_is_cell_under_flag
 1238              	.LVL89:
 188:Core/Src/game_engine.c ****         return;
 1239              		.loc 1 188 7 view .LVU267
 1240 0012 18BB     		cbnz	r0, .L77
 192:Core/Src/game_engine.c ****         return;
 1241              		.loc 1 192 5 is_stmt 1 view .LVU268
 192:Core/Src/game_engine.c ****         return;
 1242              		.loc 1 192 8 is_stmt 0 view .LVU269
 1243 0014 2A46     		mov	r2, r5
 1244 0016 2146     		mov	r1, r4
 1245 0018 3846     		mov	r0, r7
 1246 001a FFF7FEFF 		bl	game_is_cell_opened
 1247              	.LVL90:
 192:Core/Src/game_engine.c ****         return;
 1248              		.loc 1 192 7 view .LVU270
 1249 001e E8B9     		cbnz	r0, .L77
 196:Core/Src/game_engine.c ****         handle->game_state = 2;
 1250              		.loc 1 196 5 is_stmt 1 view .LVU271
 196:Core/Src/game_engine.c ****         handle->game_state = 2;
 1251              		.loc 1 196 8 is_stmt 0 view .LVU272
 1252 0020 2A46     		mov	r2, r5
 1253 0022 2146     		mov	r1, r4
 1254 0024 3846     		mov	r0, r7
 1255 0026 FFF7FEFF 		bl	game_get_cell_value
 1256              	.LVL91:
 196:Core/Src/game_engine.c ****         handle->game_state = 2;
 1257              		.loc 1 196 7 view .LVU273
 1258 002a 0A28     		cmp	r0, #10
 1259 002c 14D0     		beq	.L88
 201:Core/Src/game_engine.c ****     game_set_cell_opened(handle->player_pos_x, handle->player_pos_y, handle);
 1260              		.loc 1 201 5 is_stmt 1 view .LVU274
 201:Core/Src/game_engine.c ****     game_set_cell_opened(handle->player_pos_x, handle->player_pos_y, handle);
 1261              		.loc 1 201 13 is_stmt 0 view .LVU275
 1262 002e 2B8A     		ldrh	r3, [r5, #16]
 201:Core/Src/game_engine.c ****     game_set_cell_opened(handle->player_pos_x, handle->player_pos_y, handle);
 1263              		.loc 1 201 5 view .LVU276
 1264 0030 0133     		adds	r3, r3, #1
 1265 0032 2B82     		strh	r3, [r5, #16]	@ movhi
 202:Core/Src/game_engine.c ****     /*if(handle->openings == (handle->field_width * handle->field_height - handle->mines_count)) {
 1266              		.loc 1 202 5 is_stmt 1 view .LVU277
 1267 0034 2A46     		mov	r2, r5
 1268 0036 697B     		ldrb	r1, [r5, #13]	@ zero_extendqisi2
 1269 0038 287B     		ldrb	r0, [r5, #12]	@ zero_extendqisi2
 1270 003a FFF7FEFF 		bl	game_set_cell_opened
 1271              	.LVL92:
 208:Core/Src/game_engine.c ****        game_get_cell_value(x, y, handle) ==
 1272              		.loc 1 208 5 view .LVU278
 208:Core/Src/game_engine.c ****        game_get_cell_value(x, y, handle) ==
 1273              		.loc 1 208 8 is_stmt 0 view .LVU279
 1274 003e 2A46     		mov	r2, r5
 1275 0040 0199     		ldr	r1, [sp, #4]
 1276 0042 3846     		mov	r0, r7
 1277 0044 FFF7FEFF 		bl	game_get_cell_value
 1278              	.LVL93:
 208:Core/Src/game_engine.c ****        game_get_cell_value(x, y, handle) ==
ARM GAS  /tmp/ccSDETij.s 			page 32


 1279              		.loc 1 208 7 view .LVU280
 1280 0048 0446     		mov	r4, r0
 1281 004a 50B9     		cbnz	r0, .L89
 1282              	.L80:
 212:Core/Src/game_engine.c ****             for(uint16_t j = x - 1;  j < (x + 2); ++j) {
 1283              		.loc 1 212 9 is_stmt 1 view .LVU281
 1284              	.LBB9:
 212:Core/Src/game_engine.c ****             for(uint16_t j = x - 1;  j < (x + 2); ++j) {
 1285              		.loc 1 212 13 view .LVU282
 212:Core/Src/game_engine.c ****             for(uint16_t j = x - 1;  j < (x + 2); ++j) {
 1286              		.loc 1 212 28 is_stmt 0 view .LVU283
 1287 004c BDF804B0 		ldrh	fp, [sp, #4]
 212:Core/Src/game_engine.c ****             for(uint16_t j = x - 1;  j < (x + 2); ++j) {
 1288              		.loc 1 212 22 view .LVU284
 1289 0050 0BF1FF36 		add	r6, fp, #-1
 1290 0054 B6B2     		uxth	r6, r6
 1291              	.LVL94:
 212:Core/Src/game_engine.c ****             for(uint16_t j = x - 1;  j < (x + 2); ++j) {
 1292              		.loc 1 212 9 view .LVU285
 1293 0056 2FE0     		b	.L81
 1294              	.LVL95:
 1295              	.L88:
 212:Core/Src/game_engine.c ****             for(uint16_t j = x - 1;  j < (x + 2); ++j) {
 1296              		.loc 1 212 9 view .LVU286
 1297              	.LBE9:
 197:Core/Src/game_engine.c ****         return;
 1298              		.loc 1 197 9 is_stmt 1 view .LVU287
 197:Core/Src/game_engine.c ****         return;
 1299              		.loc 1 197 28 is_stmt 0 view .LVU288
 1300 0058 0223     		movs	r3, #2
 1301 005a AB74     		strb	r3, [r5, #18]
 198:Core/Src/game_engine.c ****     }
 1302              		.loc 1 198 9 is_stmt 1 view .LVU289
 1303              	.L77:
 229:Core/Src/game_engine.c **** 
 1304              		.loc 1 229 1 is_stmt 0 view .LVU290
 1305 005c 03B0     		add	sp, sp, #12
 1306              	.LCFI23:
 1307              		.cfi_remember_state
 1308              		.cfi_def_cfa_offset 36
 1309              		@ sp needed
 1310 005e BDE8F08F 		pop	{r4, r5, r6, r7, r8, r9, r10, fp, pc}
 1311              	.LVL96:
 1312              	.L89:
 1313              	.LCFI24:
 1314              		.cfi_restore_state
 210:Core/Src/game_engine.c ****     {
 1315              		.loc 1 210 8 discriminator 1 view .LVU291
 1316 0062 2A46     		mov	r2, r5
 1317 0064 0199     		ldr	r1, [sp, #4]
 1318 0066 3846     		mov	r0, r7
 1319 0068 FFF7FEFF 		bl	game_calculate_flags_around_cell
 1320              	.LVL97:
 208:Core/Src/game_engine.c ****        game_get_cell_value(x, y, handle) ==
 1321              		.loc 1 208 47 discriminator 1 view .LVU292
 1322 006c 8442     		cmp	r4, r0
 1323 006e F5D1     		bne	.L77
ARM GAS  /tmp/ccSDETij.s 			page 33


 1324 0070 ECE7     		b	.L80
 1325              	.LVL98:
 1326              	.L91:
 1327              	.LBB12:
 1328              	.LBB10:
 215:Core/Src/game_engine.c ****                     continue;
 1329              		.loc 1 215 60 discriminator 1 view .LVU293
 1330 0072 A245     		cmp	r10, r4
 1331 0074 12D1     		bne	.L84
 1332 0076 04E0     		b	.L83
 1333              	.L92:
 223:Core/Src/game_engine.c ****             }
 1334              		.loc 1 223 17 is_stmt 1 view .LVU294
 1335 0078 2A46     		mov	r2, r5
 1336 007a 4946     		mov	r1, r9
 1337 007c 4046     		mov	r0, r8
 1338 007e FFF7FEFF 		bl	game_open_cells_recursive
 1339              	.LVL99:
 1340              	.L83:
 213:Core/Src/game_engine.c ****                 if((i < 0) || (j < 0) || (j >= handle->field_width) ||
 1341              		.loc 1 213 51 is_stmt 0 discriminator 2 view .LVU295
 1342 0082 0134     		adds	r4, r4, #1
 1343              	.LVL100:
 213:Core/Src/game_engine.c ****                 if((i < 0) || (j < 0) || (j >= handle->field_width) ||
 1344              		.loc 1 213 51 discriminator 2 view .LVU296
 1345 0084 A4B2     		uxth	r4, r4
 1346              	.LVL101:
 1347              	.L82:
 213:Core/Src/game_engine.c ****                 if((i < 0) || (j < 0) || (j >= handle->field_width) ||
 1348              		.loc 1 213 40 discriminator 1 view .LVU297
 1349 0086 7B1C     		adds	r3, r7, #1
 213:Core/Src/game_engine.c ****                 if((i < 0) || (j < 0) || (j >= handle->field_width) ||
 1350              		.loc 1 213 13 discriminator 1 view .LVU298
 1351 0088 A342     		cmp	r3, r4
 1352 008a 13DB     		blt	.L90
 214:Core/Src/game_engine.c ****                     (i >= handle->field_height) || (i == y && j == x)) {
 1353              		.loc 1 214 17 is_stmt 1 view .LVU299
 214:Core/Src/game_engine.c ****                     (i >= handle->field_height) || (i == y && j == x)) {
 1354              		.loc 1 214 54 is_stmt 0 view .LVU300
 1355 008c 2B78     		ldrb	r3, [r5]	@ zero_extendqisi2
 214:Core/Src/game_engine.c ****                     (i >= handle->field_height) || (i == y && j == x)) {
 1356              		.loc 1 214 19 view .LVU301
 1357 008e A342     		cmp	r3, r4
 1358 0090 F7D9     		bls	.L83
 215:Core/Src/game_engine.c ****                     continue;
 1359              		.loc 1 215 33 discriminator 1 view .LVU302
 1360 0092 6B78     		ldrb	r3, [r5, #1]	@ zero_extendqisi2
 214:Core/Src/game_engine.c ****                     (i >= handle->field_height) || (i == y && j == x)) {
 1361              		.loc 1 214 69 discriminator 1 view .LVU303
 1362 0094 B342     		cmp	r3, r6
 1363 0096 F4D9     		bls	.L83
 215:Core/Src/game_engine.c ****                     continue;
 1364              		.loc 1 215 49 view .LVU304
 1365 0098 B345     		cmp	fp, r6
 1366 009a EAD0     		beq	.L91
 1367              	.L84:
 219:Core/Src/game_engine.c ****                     continue;
ARM GAS  /tmp/ccSDETij.s 			page 34


 1368              		.loc 1 219 17 is_stmt 1 view .LVU305
 219:Core/Src/game_engine.c ****                     continue;
 1369              		.loc 1 219 20 is_stmt 0 view .LVU306
 1370 009c 5FFA84F8 		uxtb	r8, r4
 1371 00a0 5FFA86F9 		uxtb	r9, r6
 1372 00a4 2A46     		mov	r2, r5
 1373 00a6 4946     		mov	r1, r9
 1374 00a8 4046     		mov	r0, r8
 1375 00aa FFF7FEFF 		bl	game_get_cell_value
 1376              	.LVL102:
 219:Core/Src/game_engine.c ****                     continue;
 1377              		.loc 1 219 19 view .LVU307
 1378 00ae 0A28     		cmp	r0, #10
 1379 00b0 E2D1     		bne	.L92
 1380 00b2 E6E7     		b	.L83
 1381              	.L90:
 219:Core/Src/game_engine.c ****                     continue;
 1382              		.loc 1 219 19 view .LVU308
 1383              	.LBE10:
 212:Core/Src/game_engine.c ****             for(uint16_t j = x - 1;  j < (x + 2); ++j) {
 1384              		.loc 1 212 46 discriminator 2 view .LVU309
 1385 00b4 0136     		adds	r6, r6, #1
 1386              	.LVL103:
 212:Core/Src/game_engine.c ****             for(uint16_t j = x - 1;  j < (x + 2); ++j) {
 1387              		.loc 1 212 46 discriminator 2 view .LVU310
 1388 00b6 B6B2     		uxth	r6, r6
 1389              	.LVL104:
 1390              	.L81:
 212:Core/Src/game_engine.c ****             for(uint16_t j = x - 1;  j < (x + 2); ++j) {
 1391              		.loc 1 212 35 discriminator 1 view .LVU311
 1392 00b8 019B     		ldr	r3, [sp, #4]
 1393 00ba 0133     		adds	r3, r3, #1
 212:Core/Src/game_engine.c ****             for(uint16_t j = x - 1;  j < (x + 2); ++j) {
 1394              		.loc 1 212 9 discriminator 1 view .LVU312
 1395 00bc B342     		cmp	r3, r6
 1396 00be CDDB     		blt	.L77
 213:Core/Src/game_engine.c ****                 if((i < 0) || (j < 0) || (j >= handle->field_width) ||
 1397              		.loc 1 213 13 is_stmt 1 view .LVU313
 1398              	.LBB11:
 213:Core/Src/game_engine.c ****                 if((i < 0) || (j < 0) || (j >= handle->field_width) ||
 1399              		.loc 1 213 17 view .LVU314
 213:Core/Src/game_engine.c ****                 if((i < 0) || (j < 0) || (j >= handle->field_width) ||
 1400              		.loc 1 213 32 is_stmt 0 view .LVU315
 1401 00c0 1FFA87FA 		uxth	r10, r7
 213:Core/Src/game_engine.c ****                 if((i < 0) || (j < 0) || (j >= handle->field_width) ||
 1402              		.loc 1 213 26 view .LVU316
 1403 00c4 0AF1FF34 		add	r4, r10, #-1
 1404 00c8 A4B2     		uxth	r4, r4
 1405              	.LVL105:
 213:Core/Src/game_engine.c ****                 if((i < 0) || (j < 0) || (j >= handle->field_width) ||
 1406              		.loc 1 213 13 view .LVU317
 1407 00ca DCE7     		b	.L82
 1408              	.LBE11:
 1409              	.LBE12:
 1410              		.cfi_endproc
 1411              	.LFE8:
 1413              		.section	.text.game_player_open_cell,"ax",%progbits
ARM GAS  /tmp/ccSDETij.s 			page 35


 1414              		.align	1
 1415              		.global	game_player_open_cell
 1416              		.syntax unified
 1417              		.thumb
 1418              		.thumb_func
 1419              		.fpu fpv4-sp-d16
 1421              	game_player_open_cell:
 1422              	.LVL106:
 1423              	.LFB7:
  98:Core/Src/game_engine.c ****     if(handle->openings == 0) {
 1424              		.loc 1 98 49 is_stmt 1 view -0
 1425              		.cfi_startproc
 1426              		@ args = 0, pretend = 0, frame = 16
 1427              		@ frame_needed = 0, uses_anonymous_args = 0
  98:Core/Src/game_engine.c ****     if(handle->openings == 0) {
 1428              		.loc 1 98 49 is_stmt 0 view .LVU319
 1429 0000 2DE9F04F 		push	{r4, r5, r6, r7, r8, r9, r10, fp, lr}
 1430              	.LCFI25:
 1431              		.cfi_def_cfa_offset 36
 1432              		.cfi_offset 4, -36
 1433              		.cfi_offset 5, -32
 1434              		.cfi_offset 6, -28
 1435              		.cfi_offset 7, -24
 1436              		.cfi_offset 8, -20
 1437              		.cfi_offset 9, -16
 1438              		.cfi_offset 10, -12
 1439              		.cfi_offset 11, -8
 1440              		.cfi_offset 14, -4
 1441 0004 85B0     		sub	sp, sp, #20
 1442              	.LCFI26:
 1443              		.cfi_def_cfa_offset 56
 1444 0006 0646     		mov	r6, r0
  99:Core/Src/game_engine.c ****         srand(12);
 1445              		.loc 1 99 5 is_stmt 1 view .LVU320
  99:Core/Src/game_engine.c ****         srand(12);
 1446              		.loc 1 99 14 is_stmt 0 view .LVU321
 1447 0008 038A     		ldrh	r3, [r0, #16]
 1448 000a 0393     		str	r3, [sp, #12]
  99:Core/Src/game_engine.c ****         srand(12);
 1449              		.loc 1 99 7 view .LVU322
 1450 000c 3BB1     		cbz	r3, .L106
 1451              	.LVL107:
 1452              	.L94:
 137:Core/Src/game_engine.c ****     game_open_cells_recursive(x, y, handle);
 1453              		.loc 1 137 5 is_stmt 1 view .LVU323
 138:Core/Src/game_engine.c ****     /*if(game_is_cell_under_flag(x, y, handle)) {
 1454              		.loc 1 138 5 view .LVU324
 1455 000e 3246     		mov	r2, r6
 1456 0010 717B     		ldrb	r1, [r6, #13]	@ zero_extendqisi2
 1457 0012 307B     		ldrb	r0, [r6, #12]	@ zero_extendqisi2
 1458 0014 FFF7FEFF 		bl	game_open_cells_recursive
 1459              	.LVL108:
 180:Core/Src/game_engine.c **** 
 1460              		.loc 1 180 1 is_stmt 0 view .LVU325
 1461 0018 05B0     		add	sp, sp, #20
 1462              	.LCFI27:
 1463              		.cfi_remember_state
ARM GAS  /tmp/ccSDETij.s 			page 36


 1464              		.cfi_def_cfa_offset 36
 1465              		@ sp needed
 1466 001a BDE8F08F 		pop	{r4, r5, r6, r7, r8, r9, r10, fp, pc}
 1467              	.LVL109:
 1468              	.L106:
 1469              	.LCFI28:
 1470              		.cfi_restore_state
 1471              	.LBB13:
 100:Core/Src/game_engine.c ****         uint16_t mines_count = 0;
 1472              		.loc 1 100 9 is_stmt 1 view .LVU326
 1473 001e 0C20     		movs	r0, #12
 1474              	.LVL110:
 100:Core/Src/game_engine.c ****         uint16_t mines_count = 0;
 1475              		.loc 1 100 9 is_stmt 0 view .LVU327
 1476 0020 FFF7FEFF 		bl	srand
 1477              	.LVL111:
 101:Core/Src/game_engine.c **** 
 1478              		.loc 1 101 9 is_stmt 1 view .LVU328
 103:Core/Src/game_engine.c ****             uint8_t mine_x = (rand() % (handle->field_width + 1));
 1479              		.loc 1 103 9 view .LVU329
 1480              	.L95:
 103:Core/Src/game_engine.c ****             uint8_t mine_x = (rand() % (handle->field_width + 1));
 1481              		.loc 1 103 36 is_stmt 0 view .LVU330
 1482 0024 F389     		ldrh	r3, [r6, #14]
 103:Core/Src/game_engine.c ****             uint8_t mine_x = (rand() % (handle->field_width + 1));
 1483              		.loc 1 103 14 view .LVU331
 1484 0026 039A     		ldr	r2, [sp, #12]
 1485 0028 9342     		cmp	r3, r2
 1486 002a F0D3     		bcc	.L94
 1487              	.LBB14:
 104:Core/Src/game_engine.c ****             uint8_t mine_y = (rand() % (handle->field_height + 1));
 1488              		.loc 1 104 13 is_stmt 1 view .LVU332
 104:Core/Src/game_engine.c ****             uint8_t mine_y = (rand() % (handle->field_height + 1));
 1489              		.loc 1 104 31 is_stmt 0 view .LVU333
 1490 002c FFF7FEFF 		bl	rand
 1491              	.LVL112:
 104:Core/Src/game_engine.c ****             uint8_t mine_y = (rand() % (handle->field_height + 1));
 1492              		.loc 1 104 47 view .LVU334
 1493 0030 3378     		ldrb	r3, [r6]	@ zero_extendqisi2
 104:Core/Src/game_engine.c ****             uint8_t mine_y = (rand() % (handle->field_height + 1));
 1494              		.loc 1 104 61 view .LVU335
 1495 0032 0133     		adds	r3, r3, #1
 104:Core/Src/game_engine.c ****             uint8_t mine_y = (rand() % (handle->field_height + 1));
 1496              		.loc 1 104 38 view .LVU336
 1497 0034 90FBF3F2 		sdiv	r2, r0, r3
 1498 0038 03FB1203 		mls	r3, r3, r2, r0
 1499 003c 0193     		str	r3, [sp, #4]
 104:Core/Src/game_engine.c ****             uint8_t mine_y = (rand() % (handle->field_height + 1));
 1500              		.loc 1 104 21 view .LVU337
 1501 003e 5FFA83FB 		uxtb	fp, r3
 1502              	.LVL113:
 105:Core/Src/game_engine.c **** 
 1503              		.loc 1 105 13 is_stmt 1 view .LVU338
 105:Core/Src/game_engine.c **** 
 1504              		.loc 1 105 31 is_stmt 0 view .LVU339
 1505 0042 FFF7FEFF 		bl	rand
 1506              	.LVL114:
ARM GAS  /tmp/ccSDETij.s 			page 37


 105:Core/Src/game_engine.c **** 
 1507              		.loc 1 105 47 view .LVU340
 1508 0046 7378     		ldrb	r3, [r6, #1]	@ zero_extendqisi2
 105:Core/Src/game_engine.c **** 
 1509              		.loc 1 105 62 view .LVU341
 1510 0048 0133     		adds	r3, r3, #1
 105:Core/Src/game_engine.c **** 
 1511              		.loc 1 105 38 view .LVU342
 1512 004a 90FBF3F2 		sdiv	r2, r0, r3
 1513 004e 03FB1203 		mls	r3, r3, r2, r0
 1514 0052 0293     		str	r3, [sp, #8]
 105:Core/Src/game_engine.c **** 
 1515              		.loc 1 105 21 view .LVU343
 1516 0054 DDB2     		uxtb	r5, r3
 1517              	.LVL115:
 107:Core/Src/game_engine.c ****               (mine_x == handle->player_pos_x && mine_y == handle->player_pos_y)) {
 1518              		.loc 1 107 13 is_stmt 1 view .LVU344
 107:Core/Src/game_engine.c ****               (mine_x == handle->player_pos_x && mine_y == handle->player_pos_y)) {
 1519              		.loc 1 107 16 is_stmt 0 view .LVU345
 1520 0056 3246     		mov	r2, r6
 1521 0058 2946     		mov	r1, r5
 1522 005a 5846     		mov	r0, fp
 1523 005c FFF7FEFF 		bl	game_get_cell_value
 1524              	.LVL116:
 107:Core/Src/game_engine.c ****               (mine_x == handle->player_pos_x && mine_y == handle->player_pos_y)) {
 1525              		.loc 1 107 15 view .LVU346
 1526 0060 0A28     		cmp	r0, #10
 1527 0062 DFD0     		beq	.L95
 108:Core/Src/game_engine.c ****                 continue;
 1528              		.loc 1 108 32 discriminator 1 view .LVU347
 1529 0064 337B     		ldrb	r3, [r6, #12]	@ zero_extendqisi2
 107:Core/Src/game_engine.c ****               (mine_x == handle->player_pos_x && mine_y == handle->player_pos_y)) {
 1530              		.loc 1 107 66 discriminator 1 view .LVU348
 1531 0066 5B45     		cmp	r3, fp
 1532 0068 02D1     		bne	.L97
 108:Core/Src/game_engine.c ****                 continue;
 1533              		.loc 1 108 66 view .LVU349
 1534 006a 737B     		ldrb	r3, [r6, #13]	@ zero_extendqisi2
 108:Core/Src/game_engine.c ****                 continue;
 1535              		.loc 1 108 47 view .LVU350
 1536 006c AB42     		cmp	r3, r5
 1537 006e D9D0     		beq	.L95
 1538              	.L97:
 112:Core/Src/game_engine.c ****             game_set_cell_value(mine_x, mine_y, 10, handle);
 1539              		.loc 1 112 13 is_stmt 1 view .LVU351
 1540 0070 039B     		ldr	r3, [sp, #12]
 1541 0072 0133     		adds	r3, r3, #1
 1542 0074 9BB2     		uxth	r3, r3
 1543 0076 0393     		str	r3, [sp, #12]
 1544              	.LVL117:
 113:Core/Src/game_engine.c **** 
 1545              		.loc 1 113 13 view .LVU352
 1546 0078 3346     		mov	r3, r6
 1547 007a 0A22     		movs	r2, #10
 1548 007c 2946     		mov	r1, r5
 1549 007e 5846     		mov	r0, fp
 1550 0080 FFF7FEFF 		bl	game_set_cell_value
ARM GAS  /tmp/ccSDETij.s 			page 38


 1551              	.LVL118:
 115:Core/Src/game_engine.c ****                 for(int16_t j = mine_x - 1;  j < (mine_x + 2); ++j) {
 1552              		.loc 1 115 13 view .LVU353
 1553              	.LBB15:
 115:Core/Src/game_engine.c ****                 for(int16_t j = mine_x - 1;  j < (mine_x + 2); ++j) {
 1554              		.loc 1 115 17 view .LVU354
 115:Core/Src/game_engine.c ****                 for(int16_t j = mine_x - 1;  j < (mine_x + 2); ++j) {
 1555              		.loc 1 115 25 is_stmt 0 view .LVU355
 1556 0084 013D     		subs	r5, r5, #1
 1557              	.LVL119:
 115:Core/Src/game_engine.c ****                 for(int16_t j = mine_x - 1;  j < (mine_x + 2); ++j) {
 1558              		.loc 1 115 13 view .LVU356
 1559 0086 2AE0     		b	.L98
 1560              	.LVL120:
 1561              	.L108:
 1562              	.LBB16:
 118:Core/Src/game_engine.c ****                         continue;
 1563              		.loc 1 118 66 discriminator 1 view .LVU357
 1564 0088 9942     		cmp	r1, r3
 1565 008a 13D1     		bne	.L101
 1566              	.L100:
 116:Core/Src/game_engine.c ****                     if(i < 0 || j < 0 || j >= handle->field_width ||
 1567              		.loc 1 116 64 discriminator 2 view .LVU358
 1568 008c 0134     		adds	r4, r4, #1
 1569              	.LVL121:
 116:Core/Src/game_engine.c ****                     if(i < 0 || j < 0 || j >= handle->field_width ||
 1570              		.loc 1 116 64 discriminator 2 view .LVU359
 1571 008e 24B2     		sxth	r4, r4
 1572              	.LVL122:
 1573              	.L99:
 116:Core/Src/game_engine.c ****                     if(i < 0 || j < 0 || j >= handle->field_width ||
 1574              		.loc 1 116 64 discriminator 2 view .LVU360
 1575 0090 9DF80430 		ldrb	r3, [sp, #4]	@ zero_extendqisi2
 116:Core/Src/game_engine.c ****                     if(i < 0 || j < 0 || j >= handle->field_width ||
 1576              		.loc 1 116 48 discriminator 1 view .LVU361
 1577 0094 5A1C     		adds	r2, r3, #1
 1578 0096 2146     		mov	r1, r4
 116:Core/Src/game_engine.c ****                     if(i < 0 || j < 0 || j >= handle->field_width ||
 1579              		.loc 1 116 17 discriminator 1 view .LVU362
 1580 0098 A242     		cmp	r2, r4
 1581 009a 1EDB     		blt	.L107
 117:Core/Src/game_engine.c ****                        i >= handle->field_height || (i == mine_y && j == mine_x)) {
 1582              		.loc 1 117 21 is_stmt 1 view .LVU363
 117:Core/Src/game_engine.c ****                        i >= handle->field_height || (i == mine_y && j == mine_x)) {
 1583              		.loc 1 117 23 is_stmt 0 view .LVU364
 1584 009c 002D     		cmp	r5, #0
 1585 009e F5DB     		blt	.L100
 117:Core/Src/game_engine.c ****                        i >= handle->field_height || (i == mine_y && j == mine_x)) {
 1586              		.loc 1 117 30 discriminator 1 view .LVU365
 1587 00a0 002C     		cmp	r4, #0
 1588 00a2 F3DB     		blt	.L100
 117:Core/Src/game_engine.c ****                        i >= handle->field_height || (i == mine_y && j == mine_x)) {
 1589              		.loc 1 117 53 discriminator 2 view .LVU366
 1590 00a4 3278     		ldrb	r2, [r6]	@ zero_extendqisi2
 117:Core/Src/game_engine.c ****                        i >= handle->field_height || (i == mine_y && j == mine_x)) {
 1591              		.loc 1 117 39 discriminator 2 view .LVU367
 1592 00a6 8A42     		cmp	r2, r1
ARM GAS  /tmp/ccSDETij.s 			page 39


 1593 00a8 F0DD     		ble	.L100
 118:Core/Src/game_engine.c ****                         continue;
 1594              		.loc 1 118 35 discriminator 3 view .LVU368
 1595 00aa 7278     		ldrb	r2, [r6, #1]	@ zero_extendqisi2
 117:Core/Src/game_engine.c ****                        i >= handle->field_height || (i == mine_y && j == mine_x)) {
 1596              		.loc 1 117 67 discriminator 3 view .LVU369
 1597 00ac BA42     		cmp	r2, r7
 1598 00ae EDDD     		ble	.L100
 118:Core/Src/game_engine.c ****                         continue;
 1599              		.loc 1 118 50 view .LVU370
 1600 00b0 5745     		cmp	r7, r10
 1601 00b2 E9D0     		beq	.L108
 1602              	.L101:
 121:Core/Src/game_engine.c ****                         continue;
 1603              		.loc 1 121 21 is_stmt 1 view .LVU371
 121:Core/Src/game_engine.c ****                         continue;
 1604              		.loc 1 121 24 is_stmt 0 view .LVU372
 1605 00b4 5FFA84F8 		uxtb	r8, r4
 1606 00b8 5FFA85F9 		uxtb	r9, r5
 1607 00bc 3246     		mov	r2, r6
 1608 00be 4946     		mov	r1, r9
 1609 00c0 4046     		mov	r0, r8
 1610 00c2 FFF7FEFF 		bl	game_get_cell_value
 1611              	.LVL123:
 121:Core/Src/game_engine.c ****                         continue;
 1612              		.loc 1 121 23 view .LVU373
 1613 00c6 0A28     		cmp	r0, #10
 1614 00c8 E0D0     		beq	.L100
 124:Core/Src/game_engine.c ****                 }
 1615              		.loc 1 124 21 is_stmt 1 view .LVU374
 1616 00ca 421C     		adds	r2, r0, #1
 1617 00cc 3346     		mov	r3, r6
 1618 00ce D2B2     		uxtb	r2, r2
 1619 00d0 4946     		mov	r1, r9
 1620 00d2 4046     		mov	r0, r8
 1621 00d4 FFF7FEFF 		bl	game_set_cell_value
 1622              	.LVL124:
 1623 00d8 D8E7     		b	.L100
 1624              	.L107:
 124:Core/Src/game_engine.c ****                 }
 1625              		.loc 1 124 21 is_stmt 0 view .LVU375
 1626              	.LBE16:
 115:Core/Src/game_engine.c ****                 for(int16_t j = mine_x - 1;  j < (mine_x + 2); ++j) {
 1627              		.loc 1 115 59 discriminator 2 view .LVU376
 1628 00da 0135     		adds	r5, r5, #1
 1629              	.LVL125:
 115:Core/Src/game_engine.c ****                 for(int16_t j = mine_x - 1;  j < (mine_x + 2); ++j) {
 1630              		.loc 1 115 59 discriminator 2 view .LVU377
 1631 00dc 2DB2     		sxth	r5, r5
 1632              	.LVL126:
 1633              	.L98:
 115:Core/Src/game_engine.c ****                 for(int16_t j = mine_x - 1;  j < (mine_x + 2); ++j) {
 1634              		.loc 1 115 59 discriminator 2 view .LVU378
 1635 00de 9DF808A0 		ldrb	r10, [sp, #8]	@ zero_extendqisi2
 115:Core/Src/game_engine.c ****                 for(int16_t j = mine_x - 1;  j < (mine_x + 2); ++j) {
 1636              		.loc 1 115 43 discriminator 1 view .LVU379
 1637 00e2 0AF10103 		add	r3, r10, #1
ARM GAS  /tmp/ccSDETij.s 			page 40


 1638 00e6 2F46     		mov	r7, r5
 115:Core/Src/game_engine.c ****                 for(int16_t j = mine_x - 1;  j < (mine_x + 2); ++j) {
 1639              		.loc 1 115 13 discriminator 1 view .LVU380
 1640 00e8 AB42     		cmp	r3, r5
 1641 00ea 9BDB     		blt	.L95
 116:Core/Src/game_engine.c ****                     if(i < 0 || j < 0 || j >= handle->field_width ||
 1642              		.loc 1 116 17 is_stmt 1 view .LVU381
 1643              	.LBB17:
 116:Core/Src/game_engine.c ****                     if(i < 0 || j < 0 || j >= handle->field_width ||
 1644              		.loc 1 116 21 view .LVU382
 116:Core/Src/game_engine.c ****                     if(i < 0 || j < 0 || j >= handle->field_width ||
 1645              		.loc 1 116 29 is_stmt 0 view .LVU383
 1646 00ec 0BF1FF34 		add	r4, fp, #-1
 1647              	.LVL127:
 116:Core/Src/game_engine.c ****                     if(i < 0 || j < 0 || j >= handle->field_width ||
 1648              		.loc 1 116 17 view .LVU384
 1649 00f0 CEE7     		b	.L99
 1650              	.LBE17:
 1651              	.LBE15:
 1652              	.LBE14:
 1653              	.LBE13:
 1654              		.cfi_endproc
 1655              	.LFE7:
 1657              		.text
 1658              	.Letext0:
 1659              		.file 2 "/usr/lib/gcc/arm-none-eabi/8.3.1/include/stddef.h"
 1660              		.file 3 "/usr/include/newlib/sys/_types.h"
 1661              		.file 4 "/usr/include/newlib/sys/reent.h"
 1662              		.file 5 "/usr/include/newlib/sys/lock.h"
 1663              		.file 6 "/usr/include/newlib/stdlib.h"
 1664              		.file 7 "/usr/lib/gcc/arm-none-eabi/8.3.1/include/stdint.h"
 1665              		.file 8 "Core/Inc/gdi.h"
 1666              		.file 9 "Core/Inc/game_symbols.h"
 1667              		.file 10 "Core/Inc/game_engine.h"
ARM GAS  /tmp/ccSDETij.s 			page 41

