ARM GAS  /tmp/ccm6qDX5.s 			page 1


   1              		.cpu cortex-m4
   2              		.eabi_attribute 27, 1
   3              		.eabi_attribute 28, 1
   4              		.eabi_attribute 20, 1
   5              		.eabi_attribute 21, 1
   6              		.eabi_attribute 23, 3
   7              		.eabi_attribute 24, 1
   8              		.eabi_attribute 25, 1
   9              		.eabi_attribute 26, 1
  10              		.eabi_attribute 30, 1
  11              		.eabi_attribute 34, 1
  12              		.eabi_attribute 18, 4
  13              		.file	"gdi.c"
  14              		.text
  15              	.Ltext0:
  16              		.cfi_sections	.debug_frame
  17              		.section	.text.set_pixel,"ax",%progbits
  18              		.align	1
  19              		.global	set_pixel
  20              		.arch armv7e-m
  21              		.syntax unified
  22              		.thumb
  23              		.thumb_func
  24              		.fpu fpv4-sp-d16
  26              	set_pixel:
  27              	.LVL0:
  28              	.LFB0:
  29              		.file 1 "Core/Src/gdi.c"
   1:Core/Src/gdi.c **** #include "gdi.h"
   2:Core/Src/gdi.c **** 
   3:Core/Src/gdi.c **** void set_pixel(uint16_t x, uint16_t y, uint8_t color, gdi_handle *handle) {
  30              		.loc 1 3 75 view -0
  31              		.cfi_startproc
  32              		@ args = 0, pretend = 0, frame = 0
  33              		@ frame_needed = 0, uses_anonymous_args = 0
  34              		@ link register save eliminated.
  35              		.loc 1 3 75 is_stmt 0 view .LVU1
  36 0000 30B4     		push	{r4, r5}
  37              	.LCFI0:
  38              		.cfi_def_cfa_offset 8
  39              		.cfi_offset 4, -8
  40              		.cfi_offset 5, -4
   4:Core/Src/gdi.c ****     if(handle->width <= x || handle->height <= y) {
  41              		.loc 1 4 5 is_stmt 1 view .LVU2
  42              		.loc 1 4 14 is_stmt 0 view .LVU3
  43 0002 9C88     		ldrh	r4, [r3, #4]
  44              		.loc 1 4 7 view .LVU4
  45 0004 8442     		cmp	r4, r0
  46 0006 14D9     		bls	.L1
  47              		.loc 1 4 36 discriminator 1 view .LVU5
  48 0008 DD88     		ldrh	r5, [r3, #6]
  49              		.loc 1 4 27 discriminator 1 view .LVU6
  50 000a 8D42     		cmp	r5, r1
  51 000c 11D9     		bls	.L1
   5:Core/Src/gdi.c ****         return;
   6:Core/Src/gdi.c ****     }
   7:Core/Src/gdi.c **** 
ARM GAS  /tmp/ccm6qDX5.s 			page 2


   8:Core/Src/gdi.c ****     uint8_t *cell = handle->image + y * (handle->width / 8) + x / 8;
  52              		.loc 1 8 5 is_stmt 1 view .LVU7
  53              		.loc 1 8 27 is_stmt 0 view .LVU8
  54 000e 1D68     		ldr	r5, [r3]
  55              		.loc 1 8 56 view .LVU9
  56 0010 E408     		lsrs	r4, r4, #3
  57              		.loc 1 8 65 view .LVU10
  58 0012 C308     		lsrs	r3, r0, #3
  59              	.LVL1:
  60              		.loc 1 8 61 view .LVU11
  61 0014 04FB0131 		mla	r1, r4, r1, r3
  62              	.LVL2:
   9:Core/Src/gdi.c ****     *cell ^= (- color ^ *cell) & (1 << (x % 8));
  63              		.loc 1 9 5 is_stmt 1 view .LVU12
  64              		.loc 1 9 11 is_stmt 0 view .LVU13
  65 0018 6B56     		ldrsb	r3, [r5, r1]
  66              		.loc 1 9 23 view .LVU14
  67 001a 5242     		rsbs	r2, r2, #0
  68              	.LVL3:
  69              		.loc 1 9 23 view .LVU15
  70 001c 5A40     		eors	r2, r2, r3
  71 001e 52B2     		sxtb	r2, r2
  72              		.loc 1 9 43 view .LVU16
  73 0020 00F00700 		and	r0, r0, #7
  74              	.LVL4:
  75              		.loc 1 9 37 view .LVU17
  76 0024 0124     		movs	r4, #1
  77 0026 04FA00F0 		lsl	r0, r4, r0
  78              		.loc 1 9 32 view .LVU18
  79 002a 0240     		ands	r2, r2, r0
  80 002c 52B2     		sxtb	r2, r2
  81              		.loc 1 9 11 view .LVU19
  82 002e 5A40     		eors	r2, r2, r3
  83 0030 6A54     		strb	r2, [r5, r1]
  10:Core/Src/gdi.c **** 
  11:Core/Src/gdi.c ****     return;
  84              		.loc 1 11 5 is_stmt 1 view .LVU20
  85              	.LVL5:
  86              	.L1:
  12:Core/Src/gdi.c **** }
  87              		.loc 1 12 1 is_stmt 0 view .LVU21
  88 0032 30BC     		pop	{r4, r5}
  89              	.LCFI1:
  90              		.cfi_restore 5
  91              		.cfi_restore 4
  92              		.cfi_def_cfa_offset 0
  93 0034 7047     		bx	lr
  94              		.cfi_endproc
  95              	.LFE0:
  97              		.section	.text.draw_picture,"ax",%progbits
  98              		.align	1
  99              		.global	draw_picture
 100              		.syntax unified
 101              		.thumb
 102              		.thumb_func
 103              		.fpu fpv4-sp-d16
 105              	draw_picture:
ARM GAS  /tmp/ccm6qDX5.s 			page 3


 106              	.LVL6:
 107              	.LFB1:
  13:Core/Src/gdi.c **** 
  14:Core/Src/gdi.c **** void draw_picture(uint16_t x, uint16_t y, uint16_t width, uint16_t height, uint8_t *picture, gdi_ha
 108              		.loc 1 14 114 is_stmt 1 view -0
 109              		.cfi_startproc
 110              		@ args = 8, pretend = 0, frame = 0
 111              		@ frame_needed = 0, uses_anonymous_args = 0
 112              		.loc 1 14 114 is_stmt 0 view .LVU23
 113 0000 2DE9F84F 		push	{r3, r4, r5, r6, r7, r8, r9, r10, fp, lr}
 114              	.LCFI2:
 115              		.cfi_def_cfa_offset 40
 116              		.cfi_offset 3, -40
 117              		.cfi_offset 4, -36
 118              		.cfi_offset 5, -32
 119              		.cfi_offset 6, -28
 120              		.cfi_offset 7, -24
 121              		.cfi_offset 8, -20
 122              		.cfi_offset 9, -16
 123              		.cfi_offset 10, -12
 124              		.cfi_offset 11, -8
 125              		.cfi_offset 14, -4
 126 0004 DDF828A0 		ldr	r10, [sp, #40]
  15:Core/Src/gdi.c ****     if(x + width >= handle->width || y + height >= handle->height) {
 127              		.loc 1 15 5 is_stmt 1 view .LVU24
 128              		.loc 1 15 10 is_stmt 0 view .LVU25
 129 0008 8518     		adds	r5, r0, r2
 130              		.loc 1 15 27 view .LVU26
 131 000a 0B9C     		ldr	r4, [sp, #44]
 132 000c A488     		ldrh	r4, [r4, #4]
 133              		.loc 1 15 7 view .LVU27
 134 000e A542     		cmp	r5, r4
 135 0010 2EDA     		bge	.L4
 136              		.loc 1 15 40 discriminator 1 view .LVU28
 137 0012 CC18     		adds	r4, r1, r3
 138              		.loc 1 15 58 discriminator 1 view .LVU29
 139 0014 0B9D     		ldr	r5, [sp, #44]
 140 0016 ED88     		ldrh	r5, [r5, #6]
 141              		.loc 1 15 35 discriminator 1 view .LVU30
 142 0018 AC42     		cmp	r4, r5
 143 001a 29DA     		bge	.L4
 144 001c 9B46     		mov	fp, r3
 145 001e 1646     		mov	r6, r2
 146 0020 8846     		mov	r8, r1
 147 0022 0746     		mov	r7, r0
  16:Core/Src/gdi.c ****         return;
  17:Core/Src/gdi.c ****     }
  18:Core/Src/gdi.c **** 
  19:Core/Src/gdi.c ****     uint16_t bytes_in_line = width / 8 + (width % 8 == 0 ? 0 : 1);
 148              		.loc 1 19 5 is_stmt 1 view .LVU31
 149              		.loc 1 19 62 is_stmt 0 view .LVU32
 150 0024 12F00709 		ands	r9, r2, #7
 151 0028 18BF     		it	ne
 152 002a 4FF00109 		movne	r9, #1
 153              		.loc 1 19 14 view .LVU33
 154 002e 09EBD209 		add	r9, r9, r2, lsr #3
 155              	.LVL7:
ARM GAS  /tmp/ccm6qDX5.s 			page 4


  20:Core/Src/gdi.c **** 
  21:Core/Src/gdi.c ****     for(uint16_t i = 0; i < height; ++i) {
 156              		.loc 1 21 5 is_stmt 1 view .LVU34
 157              	.LBB2:
 158              		.loc 1 21 9 view .LVU35
 159              		.loc 1 21 18 is_stmt 0 view .LVU36
 160 0032 0025     		movs	r5, #0
 161              		.loc 1 21 5 view .LVU37
 162 0034 01E0     		b	.L6
 163              	.LVL8:
 164              	.L11:
 165              		.loc 1 21 37 discriminator 2 view .LVU38
 166 0036 0135     		adds	r5, r5, #1
 167              	.LVL9:
 168              		.loc 1 21 37 discriminator 2 view .LVU39
 169 0038 ADB2     		uxth	r5, r5
 170              	.LVL10:
 171              	.L6:
 172              		.loc 1 21 5 discriminator 1 view .LVU40
 173 003a 5D45     		cmp	r5, fp
 174 003c 18D2     		bcs	.L4
 175              	.LBB3:
  22:Core/Src/gdi.c ****         for(uint16_t j = 0; j < width; ++j) {
 176              		.loc 1 22 22 view .LVU41
 177 003e 0024     		movs	r4, #0
 178              	.L8:
 179              	.LVL11:
 180              		.loc 1 22 9 discriminator 1 view .LVU42
 181 0040 B442     		cmp	r4, r6
 182 0042 F8D2     		bcs	.L11
  23:Core/Src/gdi.c ****             set_pixel(x + j, y + i, (picture[i * bytes_in_line + j / 8] >> (7 - j % 8)) & 1, handle
 183              		.loc 1 23 13 is_stmt 1 discriminator 3 view .LVU43
 184              		.loc 1 23 68 is_stmt 0 discriminator 3 view .LVU44
 185 0044 E308     		lsrs	r3, r4, #3
 186              		.loc 1 23 64 discriminator 3 view .LVU45
 187 0046 09FB0533 		mla	r3, r9, r5, r3
 188              		.loc 1 23 45 discriminator 3 view .LVU46
 189 004a 1AF80320 		ldrb	r2, [r10, r3]	@ zero_extendqisi2
 190              		.loc 1 23 79 discriminator 3 view .LVU47
 191 004e E343     		mvns	r3, r4
 192 0050 03F00703 		and	r3, r3, #7
 193              		.loc 1 23 73 discriminator 3 view .LVU48
 194 0054 1A41     		asrs	r2, r2, r3
 195              		.loc 1 23 13 discriminator 3 view .LVU49
 196 0056 05EB0801 		add	r1, r5, r8
 197 005a E019     		adds	r0, r4, r7
 198 005c 0B9B     		ldr	r3, [sp, #44]
 199 005e 02F00102 		and	r2, r2, #1
 200 0062 89B2     		uxth	r1, r1
 201 0064 80B2     		uxth	r0, r0
 202 0066 FFF7FEFF 		bl	set_pixel
 203              	.LVL12:
  22:Core/Src/gdi.c ****         for(uint16_t j = 0; j < width; ++j) {
 204              		.loc 1 22 40 discriminator 3 view .LVU50
 205 006a 0134     		adds	r4, r4, #1
 206              	.LVL13:
  22:Core/Src/gdi.c ****         for(uint16_t j = 0; j < width; ++j) {
ARM GAS  /tmp/ccm6qDX5.s 			page 5


 207              		.loc 1 22 40 discriminator 3 view .LVU51
 208 006c A4B2     		uxth	r4, r4
 209              	.LVL14:
  22:Core/Src/gdi.c ****         for(uint16_t j = 0; j < width; ++j) {
 210              		.loc 1 22 40 discriminator 3 view .LVU52
 211 006e E7E7     		b	.L8
 212              	.LVL15:
 213              	.L4:
  22:Core/Src/gdi.c ****         for(uint16_t j = 0; j < width; ++j) {
 214              		.loc 1 22 40 discriminator 3 view .LVU53
 215              	.LBE3:
 216              	.LBE2:
  24:Core/Src/gdi.c ****         }
  25:Core/Src/gdi.c ****     }
  26:Core/Src/gdi.c **** 
  27:Core/Src/gdi.c ****     return;
  28:Core/Src/gdi.c **** }
 217              		.loc 1 28 1 view .LVU54
 218 0070 BDE8F88F 		pop	{r3, r4, r5, r6, r7, r8, r9, r10, fp, pc}
 219              		.loc 1 28 1 view .LVU55
 220              		.cfi_endproc
 221              	.LFE1:
 223              		.section	.text.draw_picture_blend,"ax",%progbits
 224              		.align	1
 225              		.global	draw_picture_blend
 226              		.syntax unified
 227              		.thumb
 228              		.thumb_func
 229              		.fpu fpv4-sp-d16
 231              	draw_picture_blend:
 232              	.LVL16:
 233              	.LFB2:
  29:Core/Src/gdi.c **** 
  30:Core/Src/gdi.c **** void draw_picture_blend(uint16_t x, uint16_t y, uint16_t width, uint16_t height, uint8_t *picture, 
 234              		.loc 1 30 120 is_stmt 1 view -0
 235              		.cfi_startproc
 236              		@ args = 8, pretend = 0, frame = 0
 237              		@ frame_needed = 0, uses_anonymous_args = 0
 238              		.loc 1 30 120 is_stmt 0 view .LVU57
 239 0000 2DE9F84F 		push	{r3, r4, r5, r6, r7, r8, r9, r10, fp, lr}
 240              	.LCFI3:
 241              		.cfi_def_cfa_offset 40
 242              		.cfi_offset 3, -40
 243              		.cfi_offset 4, -36
 244              		.cfi_offset 5, -32
 245              		.cfi_offset 6, -28
 246              		.cfi_offset 7, -24
 247              		.cfi_offset 8, -20
 248              		.cfi_offset 9, -16
 249              		.cfi_offset 10, -12
 250              		.cfi_offset 11, -8
 251              		.cfi_offset 14, -4
 252 0004 DDF82880 		ldr	r8, [sp, #40]
  31:Core/Src/gdi.c ****     if(x + width >= handle->width || y + height >= handle->height) {
 253              		.loc 1 31 5 is_stmt 1 view .LVU58
 254              		.loc 1 31 10 is_stmt 0 view .LVU59
 255 0008 8518     		adds	r5, r0, r2
ARM GAS  /tmp/ccm6qDX5.s 			page 6


 256              		.loc 1 31 27 view .LVU60
 257 000a 0B9C     		ldr	r4, [sp, #44]
 258 000c A488     		ldrh	r4, [r4, #4]
 259              		.loc 1 31 7 view .LVU61
 260 000e A542     		cmp	r5, r4
 261 0010 30DA     		bge	.L12
 262              		.loc 1 31 40 discriminator 1 view .LVU62
 263 0012 CC18     		adds	r4, r1, r3
 264              		.loc 1 31 58 discriminator 1 view .LVU63
 265 0014 0B9D     		ldr	r5, [sp, #44]
 266 0016 ED88     		ldrh	r5, [r5, #6]
 267              		.loc 1 31 35 discriminator 1 view .LVU64
 268 0018 AC42     		cmp	r4, r5
 269 001a 2BDA     		bge	.L12
 270 001c 9B46     		mov	fp, r3
 271 001e 1646     		mov	r6, r2
 272 0020 8A46     		mov	r10, r1
 273 0022 8146     		mov	r9, r0
  32:Core/Src/gdi.c ****         return;
  33:Core/Src/gdi.c ****     }
  34:Core/Src/gdi.c **** 
  35:Core/Src/gdi.c ****     uint16_t bytes_in_line = width / 8 + (width % 8 == 0 ? 0 : 1);
 274              		.loc 1 35 5 is_stmt 1 view .LVU65
 275              		.loc 1 35 62 is_stmt 0 view .LVU66
 276 0024 12F00707 		ands	r7, r2, #7
 277 0028 18BF     		it	ne
 278 002a 0127     		movne	r7, #1
 279              		.loc 1 35 14 view .LVU67
 280 002c 07EBD207 		add	r7, r7, r2, lsr #3
 281              	.LVL17:
  36:Core/Src/gdi.c **** 
  37:Core/Src/gdi.c ****     for(uint16_t i = 0; i < height; ++i) {
 282              		.loc 1 37 5 is_stmt 1 view .LVU68
 283              	.LBB4:
 284              		.loc 1 37 9 view .LVU69
 285              		.loc 1 37 18 is_stmt 0 view .LVU70
 286 0030 0025     		movs	r5, #0
 287              		.loc 1 37 5 view .LVU71
 288 0032 1BE0     		b	.L14
 289              	.LVL18:
 290              	.L21:
 291              	.LBB5:
 292              	.LBB6:
  38:Core/Src/gdi.c ****         for(uint16_t j = 0; j < width; ++j) {
  39:Core/Src/gdi.c ****             //uint8_t cell = (handle->image[(y + i) * (handle->width / 8) + (x + j) / 8]
  40:Core/Src/gdi.c ****              //              >> (7 - j % 8)) & 1;
  41:Core/Src/gdi.c ****             uint8_t cell = (picture[i * bytes_in_line + j / 8] >> (7 - j % 8)) & 1;
  42:Core/Src/gdi.c ****             if(cell) {
  43:Core/Src/gdi.c ****                 set_pixel(x + j, y + i, /*(picture[i * bytes_in_line + j / 8] >> (7 - j % 8)) & 1*/
 293              		.loc 1 43 17 is_stmt 1 view .LVU72
 294 0034 05EB0A01 		add	r1, r5, r10
 295 0038 04EB0900 		add	r0, r4, r9
 296 003c 0B9B     		ldr	r3, [sp, #44]
 297              	.LVL19:
 298              		.loc 1 43 17 is_stmt 0 view .LVU73
 299 003e 89B2     		uxth	r1, r1
 300 0040 80B2     		uxth	r0, r0
ARM GAS  /tmp/ccm6qDX5.s 			page 7


 301 0042 FFF7FEFF 		bl	set_pixel
 302              	.LVL20:
 303              	.L15:
 304              		.loc 1 43 17 view .LVU74
 305              	.LBE6:
  38:Core/Src/gdi.c ****         for(uint16_t j = 0; j < width; ++j) {
 306              		.loc 1 38 40 discriminator 2 view .LVU75
 307 0046 0134     		adds	r4, r4, #1
 308              	.LVL21:
  38:Core/Src/gdi.c ****         for(uint16_t j = 0; j < width; ++j) {
 309              		.loc 1 38 40 discriminator 2 view .LVU76
 310 0048 A4B2     		uxth	r4, r4
 311              	.LVL22:
 312              	.L17:
  38:Core/Src/gdi.c ****         for(uint16_t j = 0; j < width; ++j) {
 313              		.loc 1 38 9 discriminator 1 view .LVU77
 314 004a B442     		cmp	r4, r6
 315 004c 0CD2     		bcs	.L20
 316              	.LBB7:
  41:Core/Src/gdi.c ****             if(cell) {
 317              		.loc 1 41 13 is_stmt 1 view .LVU78
  41:Core/Src/gdi.c ****             if(cell) {
 318              		.loc 1 41 59 is_stmt 0 view .LVU79
 319 004e E308     		lsrs	r3, r4, #3
  41:Core/Src/gdi.c ****             if(cell) {
 320              		.loc 1 41 55 view .LVU80
 321 0050 07FB0533 		mla	r3, r7, r5, r3
  41:Core/Src/gdi.c ****             if(cell) {
 322              		.loc 1 41 36 view .LVU81
 323 0054 18F80320 		ldrb	r2, [r8, r3]	@ zero_extendqisi2
  41:Core/Src/gdi.c ****             if(cell) {
 324              		.loc 1 41 70 view .LVU82
 325 0058 E343     		mvns	r3, r4
 326 005a 03F00703 		and	r3, r3, #7
  41:Core/Src/gdi.c ****             if(cell) {
 327              		.loc 1 41 64 view .LVU83
 328 005e 1A41     		asrs	r2, r2, r3
 329              	.LVL23:
  42:Core/Src/gdi.c ****                 set_pixel(x + j, y + i, /*(picture[i * bytes_in_line + j / 8] >> (7 - j % 8)) & 1*/
 330              		.loc 1 42 13 is_stmt 1 view .LVU84
  42:Core/Src/gdi.c ****                 set_pixel(x + j, y + i, /*(picture[i * bytes_in_line + j / 8] >> (7 - j % 8)) & 1*/
 331              		.loc 1 42 15 is_stmt 0 view .LVU85
 332 0060 12F00102 		ands	r2, r2, #1
 333              	.LVL24:
  42:Core/Src/gdi.c ****                 set_pixel(x + j, y + i, /*(picture[i * bytes_in_line + j / 8] >> (7 - j % 8)) & 1*/
 334              		.loc 1 42 15 view .LVU86
 335 0064 EFD0     		beq	.L15
  42:Core/Src/gdi.c ****                 set_pixel(x + j, y + i, /*(picture[i * bytes_in_line + j / 8] >> (7 - j % 8)) & 1*/
 336              		.loc 1 42 15 view .LVU87
 337 0066 E5E7     		b	.L21
 338              	.LVL25:
 339              	.L20:
  42:Core/Src/gdi.c ****                 set_pixel(x + j, y + i, /*(picture[i * bytes_in_line + j / 8] >> (7 - j % 8)) & 1*/
 340              		.loc 1 42 15 view .LVU88
 341              	.LBE7:
 342              	.LBE5:
  37:Core/Src/gdi.c ****         for(uint16_t j = 0; j < width; ++j) {
ARM GAS  /tmp/ccm6qDX5.s 			page 8


 343              		.loc 1 37 37 discriminator 2 view .LVU89
 344 0068 0135     		adds	r5, r5, #1
 345              	.LVL26:
  37:Core/Src/gdi.c ****         for(uint16_t j = 0; j < width; ++j) {
 346              		.loc 1 37 37 discriminator 2 view .LVU90
 347 006a ADB2     		uxth	r5, r5
 348              	.LVL27:
 349              	.L14:
  37:Core/Src/gdi.c ****         for(uint16_t j = 0; j < width; ++j) {
 350              		.loc 1 37 5 discriminator 1 view .LVU91
 351 006c 5D45     		cmp	r5, fp
 352 006e 01D2     		bcs	.L12
 353              	.LBB8:
  38:Core/Src/gdi.c ****             //uint8_t cell = (handle->image[(y + i) * (handle->width / 8) + (x + j) / 8]
 354              		.loc 1 38 22 view .LVU92
 355 0070 0024     		movs	r4, #0
 356 0072 EAE7     		b	.L17
 357              	.LVL28:
 358              	.L12:
  38:Core/Src/gdi.c ****             //uint8_t cell = (handle->image[(y + i) * (handle->width / 8) + (x + j) / 8]
 359              		.loc 1 38 22 view .LVU93
 360              	.LBE8:
 361              	.LBE4:
  44:Core/Src/gdi.c ****             }
  45:Core/Src/gdi.c ****         }
  46:Core/Src/gdi.c ****     }
  47:Core/Src/gdi.c **** 
  48:Core/Src/gdi.c ****     return;
  49:Core/Src/gdi.c **** }
 362              		.loc 1 49 1 view .LVU94
 363 0074 BDE8F88F 		pop	{r3, r4, r5, r6, r7, r8, r9, r10, fp, pc}
 364              		.loc 1 49 1 view .LVU95
 365              		.cfi_endproc
 366              	.LFE2:
 368              		.text
 369              	.Letext0:
 370              		.file 2 "/usr/lib/gcc/arm-none-eabi/8.3.1/include/stdint.h"
 371              		.file 3 "Core/Inc/gdi.h"
ARM GAS  /tmp/ccm6qDX5.s 			page 9


DEFINED SYMBOLS
                            *ABS*:0000000000000000 gdi.c
     /tmp/ccm6qDX5.s:18     .text.set_pixel:0000000000000000 $t
     /tmp/ccm6qDX5.s:26     .text.set_pixel:0000000000000000 set_pixel
     /tmp/ccm6qDX5.s:98     .text.draw_picture:0000000000000000 $t
     /tmp/ccm6qDX5.s:105    .text.draw_picture:0000000000000000 draw_picture
     /tmp/ccm6qDX5.s:224    .text.draw_picture_blend:0000000000000000 $t
     /tmp/ccm6qDX5.s:231    .text.draw_picture_blend:0000000000000000 draw_picture_blend

NO UNDEFINED SYMBOLS
