ARM GAS  /tmp/ccpBOonR.s 			page 1


   1              		.cpu cortex-m4
   2              		.eabi_attribute 27, 1
   3              		.eabi_attribute 28, 1
   4              		.eabi_attribute 20, 1
   5              		.eabi_attribute 21, 1
   6              		.eabi_attribute 23, 3
   7              		.eabi_attribute 24, 1
   8              		.eabi_attribute 25, 1
   9              		.eabi_attribute 26, 1
  10              		.eabi_attribute 30, 1
  11              		.eabi_attribute 34, 1
  12              		.eabi_attribute 18, 4
  13              		.file	"stm32f3xx_hal_rtc_ex.c"
  14              		.text
  15              	.Ltext0:
  16              		.cfi_sections	.debug_frame
  17              		.section	.text.HAL_RTCEx_SetTimeStamp,"ax",%progbits
  18              		.align	1
  19              		.global	HAL_RTCEx_SetTimeStamp
  20              		.arch armv7e-m
  21              		.syntax unified
  22              		.thumb
  23              		.thumb_func
  24              		.fpu fpv4-sp-d16
  26              	HAL_RTCEx_SetTimeStamp:
  27              	.LVL0:
  28              	.LFB130:
  29              		.file 1 "Drivers/STM32F3xx_HAL_Driver/Src/stm32f3xx_hal_rtc_ex.c"
   1:Drivers/STM32F3xx_HAL_Driver/Src/stm32f3xx_hal_rtc_ex.c **** /**
   2:Drivers/STM32F3xx_HAL_Driver/Src/stm32f3xx_hal_rtc_ex.c ****   ******************************************************************************
   3:Drivers/STM32F3xx_HAL_Driver/Src/stm32f3xx_hal_rtc_ex.c ****   * @file    stm32f3xx_hal_rtc_ex.c
   4:Drivers/STM32F3xx_HAL_Driver/Src/stm32f3xx_hal_rtc_ex.c ****   * @author  MCD Application Team
   5:Drivers/STM32F3xx_HAL_Driver/Src/stm32f3xx_hal_rtc_ex.c ****   * @brief   Extended RTC HAL module driver.
   6:Drivers/STM32F3xx_HAL_Driver/Src/stm32f3xx_hal_rtc_ex.c ****   *          This file provides firmware functions to manage the following
   7:Drivers/STM32F3xx_HAL_Driver/Src/stm32f3xx_hal_rtc_ex.c ****   *          functionalities of the Real-Time Clock (RTC) Extended peripheral:
   8:Drivers/STM32F3xx_HAL_Driver/Src/stm32f3xx_hal_rtc_ex.c ****   *           + RTC Timestamp functions
   9:Drivers/STM32F3xx_HAL_Driver/Src/stm32f3xx_hal_rtc_ex.c ****   *           + RTC Tamper functions
  10:Drivers/STM32F3xx_HAL_Driver/Src/stm32f3xx_hal_rtc_ex.c ****   *           + RTC Wakeup functions
  11:Drivers/STM32F3xx_HAL_Driver/Src/stm32f3xx_hal_rtc_ex.c ****   *           + Extended Control functions
  12:Drivers/STM32F3xx_HAL_Driver/Src/stm32f3xx_hal_rtc_ex.c ****   *           + Extended RTC features functions
  13:Drivers/STM32F3xx_HAL_Driver/Src/stm32f3xx_hal_rtc_ex.c ****   *
  14:Drivers/STM32F3xx_HAL_Driver/Src/stm32f3xx_hal_rtc_ex.c ****   ******************************************************************************
  15:Drivers/STM32F3xx_HAL_Driver/Src/stm32f3xx_hal_rtc_ex.c ****   * @attention
  16:Drivers/STM32F3xx_HAL_Driver/Src/stm32f3xx_hal_rtc_ex.c ****   *
  17:Drivers/STM32F3xx_HAL_Driver/Src/stm32f3xx_hal_rtc_ex.c ****   * Copyright (c) 2016 STMicroelectronics.
  18:Drivers/STM32F3xx_HAL_Driver/Src/stm32f3xx_hal_rtc_ex.c ****   * All rights reserved.
  19:Drivers/STM32F3xx_HAL_Driver/Src/stm32f3xx_hal_rtc_ex.c ****   *
  20:Drivers/STM32F3xx_HAL_Driver/Src/stm32f3xx_hal_rtc_ex.c ****   * This software is licensed under terms that can be found in the LICENSE file
  21:Drivers/STM32F3xx_HAL_Driver/Src/stm32f3xx_hal_rtc_ex.c ****   * in the root directory of this software component.
  22:Drivers/STM32F3xx_HAL_Driver/Src/stm32f3xx_hal_rtc_ex.c ****   * If no LICENSE file comes with this software, it is provided AS-IS.
  23:Drivers/STM32F3xx_HAL_Driver/Src/stm32f3xx_hal_rtc_ex.c ****   *
  24:Drivers/STM32F3xx_HAL_Driver/Src/stm32f3xx_hal_rtc_ex.c ****   ******************************************************************************
  25:Drivers/STM32F3xx_HAL_Driver/Src/stm32f3xx_hal_rtc_ex.c ****   @verbatim
  26:Drivers/STM32F3xx_HAL_Driver/Src/stm32f3xx_hal_rtc_ex.c ****   ==============================================================================
  27:Drivers/STM32F3xx_HAL_Driver/Src/stm32f3xx_hal_rtc_ex.c ****                         ##### How to use this driver #####
  28:Drivers/STM32F3xx_HAL_Driver/Src/stm32f3xx_hal_rtc_ex.c ****   ==============================================================================
  29:Drivers/STM32F3xx_HAL_Driver/Src/stm32f3xx_hal_rtc_ex.c ****   [..]
ARM GAS  /tmp/ccpBOonR.s 			page 2


  30:Drivers/STM32F3xx_HAL_Driver/Src/stm32f3xx_hal_rtc_ex.c ****     (+) Enable the RTC domain access.
  31:Drivers/STM32F3xx_HAL_Driver/Src/stm32f3xx_hal_rtc_ex.c ****     (+) Configure the RTC Prescaler (Asynchronous and Synchronous) and RTC hour
  32:Drivers/STM32F3xx_HAL_Driver/Src/stm32f3xx_hal_rtc_ex.c ****         format using the HAL_RTC_Init() function.
  33:Drivers/STM32F3xx_HAL_Driver/Src/stm32f3xx_hal_rtc_ex.c **** 
  34:Drivers/STM32F3xx_HAL_Driver/Src/stm32f3xx_hal_rtc_ex.c ****   *** RTC Wakeup configuration ***
  35:Drivers/STM32F3xx_HAL_Driver/Src/stm32f3xx_hal_rtc_ex.c ****   ================================
  36:Drivers/STM32F3xx_HAL_Driver/Src/stm32f3xx_hal_rtc_ex.c ****   [..]
  37:Drivers/STM32F3xx_HAL_Driver/Src/stm32f3xx_hal_rtc_ex.c ****     (+) To configure the RTC Wakeup Clock source and Counter use the
  38:Drivers/STM32F3xx_HAL_Driver/Src/stm32f3xx_hal_rtc_ex.c ****         HAL_RTCEx_SetWakeUpTimer() function.
  39:Drivers/STM32F3xx_HAL_Driver/Src/stm32f3xx_hal_rtc_ex.c ****         You can also configure the RTC Wakeup timer in interrupt mode using the
  40:Drivers/STM32F3xx_HAL_Driver/Src/stm32f3xx_hal_rtc_ex.c ****         HAL_RTCEx_SetWakeUpTimer_IT() function.
  41:Drivers/STM32F3xx_HAL_Driver/Src/stm32f3xx_hal_rtc_ex.c ****     (+) To read the RTC Wakeup Counter register, use the HAL_RTCEx_GetWakeUpTimer()
  42:Drivers/STM32F3xx_HAL_Driver/Src/stm32f3xx_hal_rtc_ex.c ****         function.
  43:Drivers/STM32F3xx_HAL_Driver/Src/stm32f3xx_hal_rtc_ex.c **** 
  44:Drivers/STM32F3xx_HAL_Driver/Src/stm32f3xx_hal_rtc_ex.c ****   *** Timestamp configuration ***
  45:Drivers/STM32F3xx_HAL_Driver/Src/stm32f3xx_hal_rtc_ex.c ****   ===============================
  46:Drivers/STM32F3xx_HAL_Driver/Src/stm32f3xx_hal_rtc_ex.c ****   [..]
  47:Drivers/STM32F3xx_HAL_Driver/Src/stm32f3xx_hal_rtc_ex.c ****     (+) To configure the RTC Timestamp use the HAL_RTCEx_SetTimeStamp() function.
  48:Drivers/STM32F3xx_HAL_Driver/Src/stm32f3xx_hal_rtc_ex.c ****         You can also configure the RTC Timestamp with interrupt mode using the
  49:Drivers/STM32F3xx_HAL_Driver/Src/stm32f3xx_hal_rtc_ex.c ****         HAL_RTCEx_SetTimeStamp_IT() function.
  50:Drivers/STM32F3xx_HAL_Driver/Src/stm32f3xx_hal_rtc_ex.c ****     (+) To read the RTC Timestamp Time and Date register, use the
  51:Drivers/STM32F3xx_HAL_Driver/Src/stm32f3xx_hal_rtc_ex.c ****         HAL_RTCEx_GetTimeStamp() function.
  52:Drivers/STM32F3xx_HAL_Driver/Src/stm32f3xx_hal_rtc_ex.c ****     (+) The Timestamp alternate function is mapped to RTC_AF1 (PC13).
  53:Drivers/STM32F3xx_HAL_Driver/Src/stm32f3xx_hal_rtc_ex.c **** 
  54:Drivers/STM32F3xx_HAL_Driver/Src/stm32f3xx_hal_rtc_ex.c ****   *** Tamper configuration ***
  55:Drivers/STM32F3xx_HAL_Driver/Src/stm32f3xx_hal_rtc_ex.c ****   ============================
  56:Drivers/STM32F3xx_HAL_Driver/Src/stm32f3xx_hal_rtc_ex.c ****   [..]
  57:Drivers/STM32F3xx_HAL_Driver/Src/stm32f3xx_hal_rtc_ex.c ****     (+) To Enable the RTC Tamper and configure the Tamper filter count, trigger
  58:Drivers/STM32F3xx_HAL_Driver/Src/stm32f3xx_hal_rtc_ex.c ****         Edge or Level according to the Tamper filter value (if equal to 0 Edge
  59:Drivers/STM32F3xx_HAL_Driver/Src/stm32f3xx_hal_rtc_ex.c ****         else Level), sampling frequency, precharge or discharge and Pull-UP use
  60:Drivers/STM32F3xx_HAL_Driver/Src/stm32f3xx_hal_rtc_ex.c ****         the HAL_RTCEx_SetTamper() function.
  61:Drivers/STM32F3xx_HAL_Driver/Src/stm32f3xx_hal_rtc_ex.c ****         You can configure RTC Tamper in interrupt mode using HAL_RTCEx_SetTamper_IT()
  62:Drivers/STM32F3xx_HAL_Driver/Src/stm32f3xx_hal_rtc_ex.c ****         function.
  63:Drivers/STM32F3xx_HAL_Driver/Src/stm32f3xx_hal_rtc_ex.c ****     (+) The TAMPER1 alternate function is mapped to RTC_AF1 (PC13).
  64:Drivers/STM32F3xx_HAL_Driver/Src/stm32f3xx_hal_rtc_ex.c ****     (+) The TAMPER2 alternate function is mapped to RTC_AF2 (PA0).
  65:Drivers/STM32F3xx_HAL_Driver/Src/stm32f3xx_hal_rtc_ex.c ****     (+) The TAMPER3 alternate function is mapped to RTC_AF3 (PE6).
  66:Drivers/STM32F3xx_HAL_Driver/Src/stm32f3xx_hal_rtc_ex.c **** 
  67:Drivers/STM32F3xx_HAL_Driver/Src/stm32f3xx_hal_rtc_ex.c ****   *** Backup Data Registers configuration ***
  68:Drivers/STM32F3xx_HAL_Driver/Src/stm32f3xx_hal_rtc_ex.c ****   ===========================================
  69:Drivers/STM32F3xx_HAL_Driver/Src/stm32f3xx_hal_rtc_ex.c ****   [..]
  70:Drivers/STM32F3xx_HAL_Driver/Src/stm32f3xx_hal_rtc_ex.c ****     (+) To write to the RTC Backup Data registers, use the HAL_RTCEx_BKUPWrite()
  71:Drivers/STM32F3xx_HAL_Driver/Src/stm32f3xx_hal_rtc_ex.c ****         function.
  72:Drivers/STM32F3xx_HAL_Driver/Src/stm32f3xx_hal_rtc_ex.c ****     (+) To read the RTC Backup Data registers, use the HAL_RTCEx_BKUPRead()
  73:Drivers/STM32F3xx_HAL_Driver/Src/stm32f3xx_hal_rtc_ex.c ****         function.
  74:Drivers/STM32F3xx_HAL_Driver/Src/stm32f3xx_hal_rtc_ex.c **** 
  75:Drivers/STM32F3xx_HAL_Driver/Src/stm32f3xx_hal_rtc_ex.c ****   *** Smooth Digital Calibration configuration ***
  76:Drivers/STM32F3xx_HAL_Driver/Src/stm32f3xx_hal_rtc_ex.c ****   ================================================
  77:Drivers/STM32F3xx_HAL_Driver/Src/stm32f3xx_hal_rtc_ex.c ****   [..]
  78:Drivers/STM32F3xx_HAL_Driver/Src/stm32f3xx_hal_rtc_ex.c ****     (+) RTC frequency can be digitally calibrated with a resolution of about
  79:Drivers/STM32F3xx_HAL_Driver/Src/stm32f3xx_hal_rtc_ex.c ****         0.954 ppm with a range from -487.1 ppm to +488.5 ppm.
  80:Drivers/STM32F3xx_HAL_Driver/Src/stm32f3xx_hal_rtc_ex.c ****         The correction of the frequency is performed using a series of small
  81:Drivers/STM32F3xx_HAL_Driver/Src/stm32f3xx_hal_rtc_ex.c ****         adjustments (adding and/or subtracting individual RTCCLK pulses).
  82:Drivers/STM32F3xx_HAL_Driver/Src/stm32f3xx_hal_rtc_ex.c ****     (+) The smooth digital calibration is performed during a cycle of about 2^20
  83:Drivers/STM32F3xx_HAL_Driver/Src/stm32f3xx_hal_rtc_ex.c ****         RTCCLK pulses (or 32 seconds) when the input frequency is 32,768 Hz.
  84:Drivers/STM32F3xx_HAL_Driver/Src/stm32f3xx_hal_rtc_ex.c ****         This cycle is maintained by a 20-bit counter clocked by RTCCLK.
  85:Drivers/STM32F3xx_HAL_Driver/Src/stm32f3xx_hal_rtc_ex.c ****     (+) The smooth calibration register (RTC_CALR) specifies the number of RTCCLK
  86:Drivers/STM32F3xx_HAL_Driver/Src/stm32f3xx_hal_rtc_ex.c ****         clock cycles to be masked during the 32-second cycle.
ARM GAS  /tmp/ccpBOonR.s 			page 3


  87:Drivers/STM32F3xx_HAL_Driver/Src/stm32f3xx_hal_rtc_ex.c ****     (+) The RTC Smooth Digital Calibration value and the corresponding calibration
  88:Drivers/STM32F3xx_HAL_Driver/Src/stm32f3xx_hal_rtc_ex.c ****         cycle period (32s, 16s, or 8s) can be calibrated using the
  89:Drivers/STM32F3xx_HAL_Driver/Src/stm32f3xx_hal_rtc_ex.c ****         HAL_RTCEx_SetSmoothCalib() function.
  90:Drivers/STM32F3xx_HAL_Driver/Src/stm32f3xx_hal_rtc_ex.c **** 
  91:Drivers/STM32F3xx_HAL_Driver/Src/stm32f3xx_hal_rtc_ex.c ****   @endverbatim
  92:Drivers/STM32F3xx_HAL_Driver/Src/stm32f3xx_hal_rtc_ex.c ****   ******************************************************************************
  93:Drivers/STM32F3xx_HAL_Driver/Src/stm32f3xx_hal_rtc_ex.c ****   */
  94:Drivers/STM32F3xx_HAL_Driver/Src/stm32f3xx_hal_rtc_ex.c **** 
  95:Drivers/STM32F3xx_HAL_Driver/Src/stm32f3xx_hal_rtc_ex.c **** /* Includes ------------------------------------------------------------------*/
  96:Drivers/STM32F3xx_HAL_Driver/Src/stm32f3xx_hal_rtc_ex.c **** #include "stm32f3xx_hal.h"
  97:Drivers/STM32F3xx_HAL_Driver/Src/stm32f3xx_hal_rtc_ex.c **** 
  98:Drivers/STM32F3xx_HAL_Driver/Src/stm32f3xx_hal_rtc_ex.c **** /** @addtogroup STM32F3xx_HAL_Driver
  99:Drivers/STM32F3xx_HAL_Driver/Src/stm32f3xx_hal_rtc_ex.c ****   * @{
 100:Drivers/STM32F3xx_HAL_Driver/Src/stm32f3xx_hal_rtc_ex.c ****   */
 101:Drivers/STM32F3xx_HAL_Driver/Src/stm32f3xx_hal_rtc_ex.c **** 
 102:Drivers/STM32F3xx_HAL_Driver/Src/stm32f3xx_hal_rtc_ex.c **** /** @defgroup RTCEx RTCEx
 103:Drivers/STM32F3xx_HAL_Driver/Src/stm32f3xx_hal_rtc_ex.c ****   * @brief    RTC Extended HAL module driver
 104:Drivers/STM32F3xx_HAL_Driver/Src/stm32f3xx_hal_rtc_ex.c ****   * @{
 105:Drivers/STM32F3xx_HAL_Driver/Src/stm32f3xx_hal_rtc_ex.c ****   */
 106:Drivers/STM32F3xx_HAL_Driver/Src/stm32f3xx_hal_rtc_ex.c **** 
 107:Drivers/STM32F3xx_HAL_Driver/Src/stm32f3xx_hal_rtc_ex.c **** #ifdef HAL_RTC_MODULE_ENABLED
 108:Drivers/STM32F3xx_HAL_Driver/Src/stm32f3xx_hal_rtc_ex.c **** 
 109:Drivers/STM32F3xx_HAL_Driver/Src/stm32f3xx_hal_rtc_ex.c **** /* Private typedef -----------------------------------------------------------*/
 110:Drivers/STM32F3xx_HAL_Driver/Src/stm32f3xx_hal_rtc_ex.c **** /* Private define ------------------------------------------------------------*/
 111:Drivers/STM32F3xx_HAL_Driver/Src/stm32f3xx_hal_rtc_ex.c **** /* Private macro -------------------------------------------------------------*/
 112:Drivers/STM32F3xx_HAL_Driver/Src/stm32f3xx_hal_rtc_ex.c **** /* Private variables ---------------------------------------------------------*/
 113:Drivers/STM32F3xx_HAL_Driver/Src/stm32f3xx_hal_rtc_ex.c **** /* Private function prototypes -----------------------------------------------*/
 114:Drivers/STM32F3xx_HAL_Driver/Src/stm32f3xx_hal_rtc_ex.c **** /* Exported functions --------------------------------------------------------*/
 115:Drivers/STM32F3xx_HAL_Driver/Src/stm32f3xx_hal_rtc_ex.c **** 
 116:Drivers/STM32F3xx_HAL_Driver/Src/stm32f3xx_hal_rtc_ex.c **** /** @defgroup RTCEx_Exported_Functions RTCEx Exported Functions
 117:Drivers/STM32F3xx_HAL_Driver/Src/stm32f3xx_hal_rtc_ex.c ****   * @{
 118:Drivers/STM32F3xx_HAL_Driver/Src/stm32f3xx_hal_rtc_ex.c ****   */
 119:Drivers/STM32F3xx_HAL_Driver/Src/stm32f3xx_hal_rtc_ex.c **** 
 120:Drivers/STM32F3xx_HAL_Driver/Src/stm32f3xx_hal_rtc_ex.c **** /** @defgroup RTCEx_Exported_Functions_Group1 RTC Timestamp and Tamper functions
 121:Drivers/STM32F3xx_HAL_Driver/Src/stm32f3xx_hal_rtc_ex.c ****   * @brief    RTC Timestamp and Tamper functions
 122:Drivers/STM32F3xx_HAL_Driver/Src/stm32f3xx_hal_rtc_ex.c ****   *
 123:Drivers/STM32F3xx_HAL_Driver/Src/stm32f3xx_hal_rtc_ex.c **** @verbatim
 124:Drivers/STM32F3xx_HAL_Driver/Src/stm32f3xx_hal_rtc_ex.c ****  ===============================================================================
 125:Drivers/STM32F3xx_HAL_Driver/Src/stm32f3xx_hal_rtc_ex.c ****                  ##### RTC Timestamp and Tamper functions #####
 126:Drivers/STM32F3xx_HAL_Driver/Src/stm32f3xx_hal_rtc_ex.c ****  ===============================================================================
 127:Drivers/STM32F3xx_HAL_Driver/Src/stm32f3xx_hal_rtc_ex.c **** 
 128:Drivers/STM32F3xx_HAL_Driver/Src/stm32f3xx_hal_rtc_ex.c ****  [..] This section provides functions allowing to configure Timestamp feature
 129:Drivers/STM32F3xx_HAL_Driver/Src/stm32f3xx_hal_rtc_ex.c **** 
 130:Drivers/STM32F3xx_HAL_Driver/Src/stm32f3xx_hal_rtc_ex.c **** @endverbatim
 131:Drivers/STM32F3xx_HAL_Driver/Src/stm32f3xx_hal_rtc_ex.c ****   * @{
 132:Drivers/STM32F3xx_HAL_Driver/Src/stm32f3xx_hal_rtc_ex.c ****   */
 133:Drivers/STM32F3xx_HAL_Driver/Src/stm32f3xx_hal_rtc_ex.c **** 
 134:Drivers/STM32F3xx_HAL_Driver/Src/stm32f3xx_hal_rtc_ex.c **** /**
 135:Drivers/STM32F3xx_HAL_Driver/Src/stm32f3xx_hal_rtc_ex.c ****   * @brief  Sets Timestamp.
 136:Drivers/STM32F3xx_HAL_Driver/Src/stm32f3xx_hal_rtc_ex.c ****   * @note   This API must be called before enabling the Timestamp feature.
 137:Drivers/STM32F3xx_HAL_Driver/Src/stm32f3xx_hal_rtc_ex.c ****   * @param  hrtc pointer to a RTC_HandleTypeDef structure that contains
 138:Drivers/STM32F3xx_HAL_Driver/Src/stm32f3xx_hal_rtc_ex.c ****   *                the configuration information for RTC.
 139:Drivers/STM32F3xx_HAL_Driver/Src/stm32f3xx_hal_rtc_ex.c ****   * @param  RTC_TimeStampEdge Specifies the pin edge on which the Timestamp is
 140:Drivers/STM32F3xx_HAL_Driver/Src/stm32f3xx_hal_rtc_ex.c ****   *         activated.
 141:Drivers/STM32F3xx_HAL_Driver/Src/stm32f3xx_hal_rtc_ex.c ****   *          This parameter can be one of the following values:
 142:Drivers/STM32F3xx_HAL_Driver/Src/stm32f3xx_hal_rtc_ex.c ****   *             @arg RTC_TIMESTAMPEDGE_RISING: the Timestamp event occurs on
 143:Drivers/STM32F3xx_HAL_Driver/Src/stm32f3xx_hal_rtc_ex.c ****   *                                        the rising edge of the related pin.
ARM GAS  /tmp/ccpBOonR.s 			page 4


 144:Drivers/STM32F3xx_HAL_Driver/Src/stm32f3xx_hal_rtc_ex.c ****   *             @arg RTC_TIMESTAMPEDGE_FALLING: the Timestamp event occurs on
 145:Drivers/STM32F3xx_HAL_Driver/Src/stm32f3xx_hal_rtc_ex.c ****   *                                        the falling edge of the related pin.
 146:Drivers/STM32F3xx_HAL_Driver/Src/stm32f3xx_hal_rtc_ex.c ****   * @param  RTC_TimeStampPin Specifies the RTC Timestamp Pin.
 147:Drivers/STM32F3xx_HAL_Driver/Src/stm32f3xx_hal_rtc_ex.c ****   *          This parameter can be one of the following values:
 148:Drivers/STM32F3xx_HAL_Driver/Src/stm32f3xx_hal_rtc_ex.c ****   *             @arg RTC_TIMESTAMPPIN_DEFAULT: PC13 is selected as RTC Timestamp Pin.
 149:Drivers/STM32F3xx_HAL_Driver/Src/stm32f3xx_hal_rtc_ex.c ****   * @note Although unused, parameter RTC_TimeStampPin has been kept for portability
 150:Drivers/STM32F3xx_HAL_Driver/Src/stm32f3xx_hal_rtc_ex.c ****   *       reasons.
 151:Drivers/STM32F3xx_HAL_Driver/Src/stm32f3xx_hal_rtc_ex.c ****   * @retval HAL status
 152:Drivers/STM32F3xx_HAL_Driver/Src/stm32f3xx_hal_rtc_ex.c ****   */
 153:Drivers/STM32F3xx_HAL_Driver/Src/stm32f3xx_hal_rtc_ex.c **** HAL_StatusTypeDef HAL_RTCEx_SetTimeStamp(RTC_HandleTypeDef *hrtc, uint32_t RTC_TimeStampEdge, uint3
 154:Drivers/STM32F3xx_HAL_Driver/Src/stm32f3xx_hal_rtc_ex.c **** {
  30              		.loc 1 154 1 view -0
  31              		.cfi_startproc
  32              		@ args = 0, pretend = 0, frame = 0
  33              		@ frame_needed = 0, uses_anonymous_args = 0
  34              		@ link register save eliminated.
 155:Drivers/STM32F3xx_HAL_Driver/Src/stm32f3xx_hal_rtc_ex.c ****   uint32_t tmpreg = 0U;
  35              		.loc 1 155 3 view .LVU1
 156:Drivers/STM32F3xx_HAL_Driver/Src/stm32f3xx_hal_rtc_ex.c **** 
 157:Drivers/STM32F3xx_HAL_Driver/Src/stm32f3xx_hal_rtc_ex.c ****   /* Check the parameters */
 158:Drivers/STM32F3xx_HAL_Driver/Src/stm32f3xx_hal_rtc_ex.c ****   assert_param(IS_TIMESTAMP_EDGE(RTC_TimeStampEdge));
  36              		.loc 1 158 3 view .LVU2
 159:Drivers/STM32F3xx_HAL_Driver/Src/stm32f3xx_hal_rtc_ex.c ****   assert_param(IS_RTC_TIMESTAMP_PIN(RTC_TimeStampPin));
  37              		.loc 1 159 3 view .LVU3
 160:Drivers/STM32F3xx_HAL_Driver/Src/stm32f3xx_hal_rtc_ex.c **** 
 161:Drivers/STM32F3xx_HAL_Driver/Src/stm32f3xx_hal_rtc_ex.c ****   /* Prevent compilation warning due to unused argument(s) if assert_param check
 162:Drivers/STM32F3xx_HAL_Driver/Src/stm32f3xx_hal_rtc_ex.c ****      is disabled */
 163:Drivers/STM32F3xx_HAL_Driver/Src/stm32f3xx_hal_rtc_ex.c ****   UNUSED(RTC_TimeStampPin);
  38              		.loc 1 163 3 view .LVU4
 164:Drivers/STM32F3xx_HAL_Driver/Src/stm32f3xx_hal_rtc_ex.c **** 
 165:Drivers/STM32F3xx_HAL_Driver/Src/stm32f3xx_hal_rtc_ex.c ****   /* Process Locked */
 166:Drivers/STM32F3xx_HAL_Driver/Src/stm32f3xx_hal_rtc_ex.c ****   __HAL_LOCK(hrtc);
  39              		.loc 1 166 3 view .LVU5
  40              		.loc 1 166 3 view .LVU6
  41 0000 027F     		ldrb	r2, [r0, #28]	@ zero_extendqisi2
  42              	.LVL1:
  43              		.loc 1 166 3 is_stmt 0 view .LVU7
  44 0002 012A     		cmp	r2, #1
  45 0004 2DD0     		beq	.L3
 154:Drivers/STM32F3xx_HAL_Driver/Src/stm32f3xx_hal_rtc_ex.c ****   uint32_t tmpreg = 0U;
  46              		.loc 1 154 1 discriminator 2 view .LVU8
  47 0006 10B4     		push	{r4}
  48              	.LCFI0:
  49              		.cfi_def_cfa_offset 4
  50              		.cfi_offset 4, -4
  51              		.loc 1 166 3 is_stmt 1 discriminator 2 view .LVU9
  52 0008 0122     		movs	r2, #1
  53 000a 0277     		strb	r2, [r0, #28]
 167:Drivers/STM32F3xx_HAL_Driver/Src/stm32f3xx_hal_rtc_ex.c **** 
 168:Drivers/STM32F3xx_HAL_Driver/Src/stm32f3xx_hal_rtc_ex.c ****   /* Change RTC state to BUSY */
 169:Drivers/STM32F3xx_HAL_Driver/Src/stm32f3xx_hal_rtc_ex.c ****   hrtc->State = HAL_RTC_STATE_BUSY;
  54              		.loc 1 169 3 discriminator 2 view .LVU10
  55              		.loc 1 169 15 is_stmt 0 discriminator 2 view .LVU11
  56 000c 0223     		movs	r3, #2
  57 000e 4377     		strb	r3, [r0, #29]
 170:Drivers/STM32F3xx_HAL_Driver/Src/stm32f3xx_hal_rtc_ex.c **** 
 171:Drivers/STM32F3xx_HAL_Driver/Src/stm32f3xx_hal_rtc_ex.c ****   /* Get the RTC_CR register and clear the bits to be configured */
ARM GAS  /tmp/ccpBOonR.s 			page 5


 172:Drivers/STM32F3xx_HAL_Driver/Src/stm32f3xx_hal_rtc_ex.c ****   tmpreg = (uint32_t)(hrtc->Instance->CR & (uint32_t)~(RTC_CR_TSEDGE | RTC_CR_TSE));
  58              		.loc 1 172 3 is_stmt 1 discriminator 2 view .LVU12
  59              		.loc 1 172 27 is_stmt 0 discriminator 2 view .LVU13
  60 0010 0468     		ldr	r4, [r0]
  61              		.loc 1 172 37 discriminator 2 view .LVU14
  62 0012 A368     		ldr	r3, [r4, #8]
  63              		.loc 1 172 10 discriminator 2 view .LVU15
  64 0014 23F40063 		bic	r3, r3, #2048
  65 0018 23F00803 		bic	r3, r3, #8
  66              	.LVL2:
 173:Drivers/STM32F3xx_HAL_Driver/Src/stm32f3xx_hal_rtc_ex.c **** 
 174:Drivers/STM32F3xx_HAL_Driver/Src/stm32f3xx_hal_rtc_ex.c ****   /* Configure the Timestamp TSEDGE bit */
 175:Drivers/STM32F3xx_HAL_Driver/Src/stm32f3xx_hal_rtc_ex.c ****   tmpreg |= RTC_TimeStampEdge;
  67              		.loc 1 175 3 is_stmt 1 discriminator 2 view .LVU16
  68              		.loc 1 175 10 is_stmt 0 discriminator 2 view .LVU17
  69 001c 0B43     		orrs	r3, r3, r1
  70              	.LVL3:
 176:Drivers/STM32F3xx_HAL_Driver/Src/stm32f3xx_hal_rtc_ex.c **** 
 177:Drivers/STM32F3xx_HAL_Driver/Src/stm32f3xx_hal_rtc_ex.c ****   /* Disable the write protection for RTC registers */
 178:Drivers/STM32F3xx_HAL_Driver/Src/stm32f3xx_hal_rtc_ex.c ****   __HAL_RTC_WRITEPROTECTION_DISABLE(hrtc);
  71              		.loc 1 178 3 is_stmt 1 discriminator 2 view .LVU18
  72              		.loc 1 178 3 discriminator 2 view .LVU19
  73 001e CA21     		movs	r1, #202
  74              	.LVL4:
  75              		.loc 1 178 3 is_stmt 0 discriminator 2 view .LVU20
  76 0020 6162     		str	r1, [r4, #36]
  77              		.loc 1 178 3 is_stmt 1 discriminator 2 view .LVU21
  78 0022 0168     		ldr	r1, [r0]
  79 0024 5324     		movs	r4, #83
  80 0026 4C62     		str	r4, [r1, #36]
 179:Drivers/STM32F3xx_HAL_Driver/Src/stm32f3xx_hal_rtc_ex.c **** 
 180:Drivers/STM32F3xx_HAL_Driver/Src/stm32f3xx_hal_rtc_ex.c ****   /* Copy the desired configuration into the CR register */
 181:Drivers/STM32F3xx_HAL_Driver/Src/stm32f3xx_hal_rtc_ex.c ****   hrtc->Instance->CR = (uint32_t)tmpreg;
  81              		.loc 1 181 3 discriminator 2 view .LVU22
  82              		.loc 1 181 7 is_stmt 0 discriminator 2 view .LVU23
  83 0028 0168     		ldr	r1, [r0]
  84              		.loc 1 181 22 discriminator 2 view .LVU24
  85 002a 8B60     		str	r3, [r1, #8]
 182:Drivers/STM32F3xx_HAL_Driver/Src/stm32f3xx_hal_rtc_ex.c **** 
 183:Drivers/STM32F3xx_HAL_Driver/Src/stm32f3xx_hal_rtc_ex.c ****   /* Clear RTC Timestamp flag */
 184:Drivers/STM32F3xx_HAL_Driver/Src/stm32f3xx_hal_rtc_ex.c ****   __HAL_RTC_TIMESTAMP_CLEAR_FLAG(hrtc, RTC_FLAG_TSF);
  86              		.loc 1 184 3 is_stmt 1 discriminator 2 view .LVU25
  87 002c 0168     		ldr	r1, [r0]
  88 002e CB68     		ldr	r3, [r1, #12]
  89              	.LVL5:
  90              		.loc 1 184 3 is_stmt 0 discriminator 2 view .LVU26
  91 0030 DBB2     		uxtb	r3, r3
  92 0032 63F40863 		orn	r3, r3, #2176
  93 0036 CB60     		str	r3, [r1, #12]
 185:Drivers/STM32F3xx_HAL_Driver/Src/stm32f3xx_hal_rtc_ex.c **** 
 186:Drivers/STM32F3xx_HAL_Driver/Src/stm32f3xx_hal_rtc_ex.c ****   /* Clear RTC Timestamp overrun Flag */
 187:Drivers/STM32F3xx_HAL_Driver/Src/stm32f3xx_hal_rtc_ex.c ****   __HAL_RTC_TIMESTAMP_CLEAR_FLAG(hrtc, RTC_FLAG_TSOVF);
  94              		.loc 1 187 3 is_stmt 1 discriminator 2 view .LVU27
  95 0038 0168     		ldr	r1, [r0]
  96 003a CB68     		ldr	r3, [r1, #12]
  97 003c DBB2     		uxtb	r3, r3
  98 003e 63F48453 		orn	r3, r3, #4224
ARM GAS  /tmp/ccpBOonR.s 			page 6


  99 0042 CB60     		str	r3, [r1, #12]
 188:Drivers/STM32F3xx_HAL_Driver/Src/stm32f3xx_hal_rtc_ex.c **** 
 189:Drivers/STM32F3xx_HAL_Driver/Src/stm32f3xx_hal_rtc_ex.c ****   /* Enable the Timestamp saving */
 190:Drivers/STM32F3xx_HAL_Driver/Src/stm32f3xx_hal_rtc_ex.c ****   __HAL_RTC_TIMESTAMP_ENABLE(hrtc);
 100              		.loc 1 190 3 discriminator 2 view .LVU28
 101 0044 0168     		ldr	r1, [r0]
 102 0046 8B68     		ldr	r3, [r1, #8]
 103 0048 43F40063 		orr	r3, r3, #2048
 104 004c 8B60     		str	r3, [r1, #8]
 191:Drivers/STM32F3xx_HAL_Driver/Src/stm32f3xx_hal_rtc_ex.c **** 
 192:Drivers/STM32F3xx_HAL_Driver/Src/stm32f3xx_hal_rtc_ex.c ****   /* Enable the write protection for RTC registers */
 193:Drivers/STM32F3xx_HAL_Driver/Src/stm32f3xx_hal_rtc_ex.c ****   __HAL_RTC_WRITEPROTECTION_ENABLE(hrtc);
 105              		.loc 1 193 3 discriminator 2 view .LVU29
 106              		.loc 1 193 3 discriminator 2 view .LVU30
 107 004e 0368     		ldr	r3, [r0]
 108 0050 FF21     		movs	r1, #255
 109 0052 5962     		str	r1, [r3, #36]
 194:Drivers/STM32F3xx_HAL_Driver/Src/stm32f3xx_hal_rtc_ex.c **** 
 195:Drivers/STM32F3xx_HAL_Driver/Src/stm32f3xx_hal_rtc_ex.c ****   /* Change RTC state back to READY */
 196:Drivers/STM32F3xx_HAL_Driver/Src/stm32f3xx_hal_rtc_ex.c ****   hrtc->State = HAL_RTC_STATE_READY;
 110              		.loc 1 196 3 discriminator 2 view .LVU31
 111              		.loc 1 196 15 is_stmt 0 discriminator 2 view .LVU32
 112 0054 4277     		strb	r2, [r0, #29]
 197:Drivers/STM32F3xx_HAL_Driver/Src/stm32f3xx_hal_rtc_ex.c **** 
 198:Drivers/STM32F3xx_HAL_Driver/Src/stm32f3xx_hal_rtc_ex.c ****   /* Process Unlocked */
 199:Drivers/STM32F3xx_HAL_Driver/Src/stm32f3xx_hal_rtc_ex.c ****   __HAL_UNLOCK(hrtc);
 113              		.loc 1 199 3 is_stmt 1 discriminator 2 view .LVU33
 114              		.loc 1 199 3 discriminator 2 view .LVU34
 115 0056 0023     		movs	r3, #0
 116 0058 0377     		strb	r3, [r0, #28]
 200:Drivers/STM32F3xx_HAL_Driver/Src/stm32f3xx_hal_rtc_ex.c **** 
 201:Drivers/STM32F3xx_HAL_Driver/Src/stm32f3xx_hal_rtc_ex.c ****   return HAL_OK;
 117              		.loc 1 201 3 discriminator 2 view .LVU35
 118              		.loc 1 201 10 is_stmt 0 discriminator 2 view .LVU36
 119 005a 1846     		mov	r0, r3
 120              	.LVL6:
 202:Drivers/STM32F3xx_HAL_Driver/Src/stm32f3xx_hal_rtc_ex.c **** }
 121              		.loc 1 202 1 discriminator 2 view .LVU37
 122 005c 5DF8044B 		ldr	r4, [sp], #4
 123              	.LCFI1:
 124              		.cfi_restore 4
 125              		.cfi_def_cfa_offset 0
 126 0060 7047     		bx	lr
 127              	.LVL7:
 128              	.L3:
 166:Drivers/STM32F3xx_HAL_Driver/Src/stm32f3xx_hal_rtc_ex.c **** 
 129              		.loc 1 166 3 view .LVU38
 130 0062 0220     		movs	r0, #2
 131              	.LVL8:
 132              		.loc 1 202 1 view .LVU39
 133 0064 7047     		bx	lr
 134              		.cfi_endproc
 135              	.LFE130:
 137              		.section	.text.HAL_RTCEx_SetTimeStamp_IT,"ax",%progbits
 138              		.align	1
 139              		.global	HAL_RTCEx_SetTimeStamp_IT
 140              		.syntax unified
ARM GAS  /tmp/ccpBOonR.s 			page 7


 141              		.thumb
 142              		.thumb_func
 143              		.fpu fpv4-sp-d16
 145              	HAL_RTCEx_SetTimeStamp_IT:
 146              	.LVL9:
 147              	.LFB131:
 203:Drivers/STM32F3xx_HAL_Driver/Src/stm32f3xx_hal_rtc_ex.c **** 
 204:Drivers/STM32F3xx_HAL_Driver/Src/stm32f3xx_hal_rtc_ex.c **** /**
 205:Drivers/STM32F3xx_HAL_Driver/Src/stm32f3xx_hal_rtc_ex.c ****   * @brief  Sets Timestamp with Interrupt.
 206:Drivers/STM32F3xx_HAL_Driver/Src/stm32f3xx_hal_rtc_ex.c ****   * @param  hrtc pointer to a RTC_HandleTypeDef structure that contains
 207:Drivers/STM32F3xx_HAL_Driver/Src/stm32f3xx_hal_rtc_ex.c ****   *                the configuration information for RTC.
 208:Drivers/STM32F3xx_HAL_Driver/Src/stm32f3xx_hal_rtc_ex.c ****   * @note   This API must be called before enabling the Timestamp feature.
 209:Drivers/STM32F3xx_HAL_Driver/Src/stm32f3xx_hal_rtc_ex.c ****   * @param  RTC_TimeStampEdge Specifies the pin edge on which the Timestamp is
 210:Drivers/STM32F3xx_HAL_Driver/Src/stm32f3xx_hal_rtc_ex.c ****   *         activated.
 211:Drivers/STM32F3xx_HAL_Driver/Src/stm32f3xx_hal_rtc_ex.c ****   *          This parameter can be one of the following values:
 212:Drivers/STM32F3xx_HAL_Driver/Src/stm32f3xx_hal_rtc_ex.c ****   *             @arg RTC_TIMESTAMPEDGE_RISING: the Timestamp event occurs on
 213:Drivers/STM32F3xx_HAL_Driver/Src/stm32f3xx_hal_rtc_ex.c ****   *                                        the rising edge of the related pin.
 214:Drivers/STM32F3xx_HAL_Driver/Src/stm32f3xx_hal_rtc_ex.c ****   *             @arg RTC_TIMESTAMPEDGE_FALLING: the Timestamp event occurs on
 215:Drivers/STM32F3xx_HAL_Driver/Src/stm32f3xx_hal_rtc_ex.c ****   *                                        the falling edge of the related pin.
 216:Drivers/STM32F3xx_HAL_Driver/Src/stm32f3xx_hal_rtc_ex.c ****   * @param  RTC_TimeStampPin Specifies the RTC Timestamp Pin.
 217:Drivers/STM32F3xx_HAL_Driver/Src/stm32f3xx_hal_rtc_ex.c ****   *          This parameter can be one of the following values:
 218:Drivers/STM32F3xx_HAL_Driver/Src/stm32f3xx_hal_rtc_ex.c ****   *             @arg RTC_TIMESTAMPPIN_DEFAULT: PC13 is selected as RTC Timestamp Pin.
 219:Drivers/STM32F3xx_HAL_Driver/Src/stm32f3xx_hal_rtc_ex.c ****   * @note Although unused, parameter RTC_TimeStampPin has been kept for portability
 220:Drivers/STM32F3xx_HAL_Driver/Src/stm32f3xx_hal_rtc_ex.c ****   *       reasons.
 221:Drivers/STM32F3xx_HAL_Driver/Src/stm32f3xx_hal_rtc_ex.c ****   * @retval HAL status
 222:Drivers/STM32F3xx_HAL_Driver/Src/stm32f3xx_hal_rtc_ex.c ****   */
 223:Drivers/STM32F3xx_HAL_Driver/Src/stm32f3xx_hal_rtc_ex.c **** HAL_StatusTypeDef HAL_RTCEx_SetTimeStamp_IT(RTC_HandleTypeDef *hrtc, uint32_t RTC_TimeStampEdge, ui
 224:Drivers/STM32F3xx_HAL_Driver/Src/stm32f3xx_hal_rtc_ex.c **** {
 148              		.loc 1 224 1 is_stmt 1 view -0
 149              		.cfi_startproc
 150              		@ args = 0, pretend = 0, frame = 0
 151              		@ frame_needed = 0, uses_anonymous_args = 0
 152              		@ link register save eliminated.
 225:Drivers/STM32F3xx_HAL_Driver/Src/stm32f3xx_hal_rtc_ex.c ****   uint32_t tmpreg = 0U;
 153              		.loc 1 225 3 view .LVU41
 226:Drivers/STM32F3xx_HAL_Driver/Src/stm32f3xx_hal_rtc_ex.c **** 
 227:Drivers/STM32F3xx_HAL_Driver/Src/stm32f3xx_hal_rtc_ex.c ****   /* Check the parameters */
 228:Drivers/STM32F3xx_HAL_Driver/Src/stm32f3xx_hal_rtc_ex.c ****   assert_param(IS_TIMESTAMP_EDGE(RTC_TimeStampEdge));
 154              		.loc 1 228 3 view .LVU42
 229:Drivers/STM32F3xx_HAL_Driver/Src/stm32f3xx_hal_rtc_ex.c ****   assert_param(IS_RTC_TIMESTAMP_PIN(RTC_TimeStampPin));
 155              		.loc 1 229 3 view .LVU43
 230:Drivers/STM32F3xx_HAL_Driver/Src/stm32f3xx_hal_rtc_ex.c **** 
 231:Drivers/STM32F3xx_HAL_Driver/Src/stm32f3xx_hal_rtc_ex.c ****   /* Prevent compilation warning due to unused argument(s) if assert_param check
 232:Drivers/STM32F3xx_HAL_Driver/Src/stm32f3xx_hal_rtc_ex.c ****      is disabled */
 233:Drivers/STM32F3xx_HAL_Driver/Src/stm32f3xx_hal_rtc_ex.c ****   UNUSED(RTC_TimeStampPin);
 156              		.loc 1 233 3 view .LVU44
 234:Drivers/STM32F3xx_HAL_Driver/Src/stm32f3xx_hal_rtc_ex.c **** 
 235:Drivers/STM32F3xx_HAL_Driver/Src/stm32f3xx_hal_rtc_ex.c ****   /* Process Locked */
 236:Drivers/STM32F3xx_HAL_Driver/Src/stm32f3xx_hal_rtc_ex.c ****   __HAL_LOCK(hrtc);
 157              		.loc 1 236 3 view .LVU45
 158              		.loc 1 236 3 view .LVU46
 159 0000 027F     		ldrb	r2, [r0, #28]	@ zero_extendqisi2
 160              	.LVL10:
 161              		.loc 1 236 3 is_stmt 0 view .LVU47
 162 0002 012A     		cmp	r2, #1
 163 0004 3BD0     		beq	.L10
 224:Drivers/STM32F3xx_HAL_Driver/Src/stm32f3xx_hal_rtc_ex.c ****   uint32_t tmpreg = 0U;
ARM GAS  /tmp/ccpBOonR.s 			page 8


 164              		.loc 1 224 1 discriminator 2 view .LVU48
 165 0006 10B4     		push	{r4}
 166              	.LCFI2:
 167              		.cfi_def_cfa_offset 4
 168              		.cfi_offset 4, -4
 169              		.loc 1 236 3 is_stmt 1 discriminator 2 view .LVU49
 170 0008 0124     		movs	r4, #1
 171 000a 0477     		strb	r4, [r0, #28]
 237:Drivers/STM32F3xx_HAL_Driver/Src/stm32f3xx_hal_rtc_ex.c **** 
 238:Drivers/STM32F3xx_HAL_Driver/Src/stm32f3xx_hal_rtc_ex.c ****   /* Change RTC state to BUSY */
 239:Drivers/STM32F3xx_HAL_Driver/Src/stm32f3xx_hal_rtc_ex.c ****   hrtc->State = HAL_RTC_STATE_BUSY;
 172              		.loc 1 239 3 discriminator 2 view .LVU50
 173              		.loc 1 239 15 is_stmt 0 discriminator 2 view .LVU51
 174 000c 0223     		movs	r3, #2
 175 000e 4377     		strb	r3, [r0, #29]
 240:Drivers/STM32F3xx_HAL_Driver/Src/stm32f3xx_hal_rtc_ex.c **** 
 241:Drivers/STM32F3xx_HAL_Driver/Src/stm32f3xx_hal_rtc_ex.c ****   /* Get the RTC_CR register and clear the bits to be configured */
 242:Drivers/STM32F3xx_HAL_Driver/Src/stm32f3xx_hal_rtc_ex.c ****   tmpreg = (uint32_t)(hrtc->Instance->CR & (uint32_t)~(RTC_CR_TSEDGE | RTC_CR_TSE));
 176              		.loc 1 242 3 is_stmt 1 discriminator 2 view .LVU52
 177              		.loc 1 242 27 is_stmt 0 discriminator 2 view .LVU53
 178 0010 0268     		ldr	r2, [r0]
 179              		.loc 1 242 37 discriminator 2 view .LVU54
 180 0012 9368     		ldr	r3, [r2, #8]
 181              		.loc 1 242 10 discriminator 2 view .LVU55
 182 0014 23F40063 		bic	r3, r3, #2048
 183 0018 23F00803 		bic	r3, r3, #8
 184              	.LVL11:
 243:Drivers/STM32F3xx_HAL_Driver/Src/stm32f3xx_hal_rtc_ex.c **** 
 244:Drivers/STM32F3xx_HAL_Driver/Src/stm32f3xx_hal_rtc_ex.c ****   /* Configure the Timestamp TSEDGE bit */
 245:Drivers/STM32F3xx_HAL_Driver/Src/stm32f3xx_hal_rtc_ex.c ****   tmpreg |= RTC_TimeStampEdge;
 185              		.loc 1 245 3 is_stmt 1 discriminator 2 view .LVU56
 186              		.loc 1 245 10 is_stmt 0 discriminator 2 view .LVU57
 187 001c 0B43     		orrs	r3, r3, r1
 188              	.LVL12:
 246:Drivers/STM32F3xx_HAL_Driver/Src/stm32f3xx_hal_rtc_ex.c **** 
 247:Drivers/STM32F3xx_HAL_Driver/Src/stm32f3xx_hal_rtc_ex.c ****   /* Disable the write protection for RTC registers */
 248:Drivers/STM32F3xx_HAL_Driver/Src/stm32f3xx_hal_rtc_ex.c ****   __HAL_RTC_WRITEPROTECTION_DISABLE(hrtc);
 189              		.loc 1 248 3 is_stmt 1 discriminator 2 view .LVU58
 190              		.loc 1 248 3 discriminator 2 view .LVU59
 191 001e CA21     		movs	r1, #202
 192              	.LVL13:
 193              		.loc 1 248 3 is_stmt 0 discriminator 2 view .LVU60
 194 0020 5162     		str	r1, [r2, #36]
 195              		.loc 1 248 3 is_stmt 1 discriminator 2 view .LVU61
 196 0022 0268     		ldr	r2, [r0]
 197 0024 5321     		movs	r1, #83
 198 0026 5162     		str	r1, [r2, #36]
 249:Drivers/STM32F3xx_HAL_Driver/Src/stm32f3xx_hal_rtc_ex.c **** 
 250:Drivers/STM32F3xx_HAL_Driver/Src/stm32f3xx_hal_rtc_ex.c ****   /* Copy the desired configuration into the CR register */
 251:Drivers/STM32F3xx_HAL_Driver/Src/stm32f3xx_hal_rtc_ex.c ****   hrtc->Instance->CR = (uint32_t)tmpreg;
 199              		.loc 1 251 3 discriminator 2 view .LVU62
 200              		.loc 1 251 7 is_stmt 0 discriminator 2 view .LVU63
 201 0028 0268     		ldr	r2, [r0]
 202              		.loc 1 251 22 discriminator 2 view .LVU64
 203 002a 9360     		str	r3, [r2, #8]
 252:Drivers/STM32F3xx_HAL_Driver/Src/stm32f3xx_hal_rtc_ex.c **** 
 253:Drivers/STM32F3xx_HAL_Driver/Src/stm32f3xx_hal_rtc_ex.c ****   /* Clear RTC Timestamp flag */
ARM GAS  /tmp/ccpBOonR.s 			page 9


 254:Drivers/STM32F3xx_HAL_Driver/Src/stm32f3xx_hal_rtc_ex.c ****   __HAL_RTC_TIMESTAMP_CLEAR_FLAG(hrtc, RTC_FLAG_TSF);
 204              		.loc 1 254 3 is_stmt 1 discriminator 2 view .LVU65
 205 002c 0268     		ldr	r2, [r0]
 206 002e D368     		ldr	r3, [r2, #12]
 207              	.LVL14:
 208              		.loc 1 254 3 is_stmt 0 discriminator 2 view .LVU66
 209 0030 DBB2     		uxtb	r3, r3
 210 0032 63F40863 		orn	r3, r3, #2176
 211 0036 D360     		str	r3, [r2, #12]
 255:Drivers/STM32F3xx_HAL_Driver/Src/stm32f3xx_hal_rtc_ex.c **** 
 256:Drivers/STM32F3xx_HAL_Driver/Src/stm32f3xx_hal_rtc_ex.c ****   /* Clear RTC Timestamp overrun Flag */
 257:Drivers/STM32F3xx_HAL_Driver/Src/stm32f3xx_hal_rtc_ex.c ****   __HAL_RTC_TIMESTAMP_CLEAR_FLAG(hrtc, RTC_FLAG_TSOVF);
 212              		.loc 1 257 3 is_stmt 1 discriminator 2 view .LVU67
 213 0038 0268     		ldr	r2, [r0]
 214 003a D368     		ldr	r3, [r2, #12]
 215 003c DBB2     		uxtb	r3, r3
 216 003e 63F48453 		orn	r3, r3, #4224
 217 0042 D360     		str	r3, [r2, #12]
 258:Drivers/STM32F3xx_HAL_Driver/Src/stm32f3xx_hal_rtc_ex.c **** 
 259:Drivers/STM32F3xx_HAL_Driver/Src/stm32f3xx_hal_rtc_ex.c ****   /* Enable the Timestamp saving */
 260:Drivers/STM32F3xx_HAL_Driver/Src/stm32f3xx_hal_rtc_ex.c ****   __HAL_RTC_TIMESTAMP_ENABLE(hrtc);
 218              		.loc 1 260 3 discriminator 2 view .LVU68
 219 0044 0268     		ldr	r2, [r0]
 220 0046 9368     		ldr	r3, [r2, #8]
 221 0048 43F40063 		orr	r3, r3, #2048
 222 004c 9360     		str	r3, [r2, #8]
 261:Drivers/STM32F3xx_HAL_Driver/Src/stm32f3xx_hal_rtc_ex.c **** 
 262:Drivers/STM32F3xx_HAL_Driver/Src/stm32f3xx_hal_rtc_ex.c ****   /* Enable IT Timestamp */
 263:Drivers/STM32F3xx_HAL_Driver/Src/stm32f3xx_hal_rtc_ex.c ****   __HAL_RTC_TIMESTAMP_ENABLE_IT(hrtc, RTC_IT_TS);
 223              		.loc 1 263 3 discriminator 2 view .LVU69
 224 004e 0268     		ldr	r2, [r0]
 225 0050 9368     		ldr	r3, [r2, #8]
 226 0052 43F40043 		orr	r3, r3, #32768
 227 0056 9360     		str	r3, [r2, #8]
 264:Drivers/STM32F3xx_HAL_Driver/Src/stm32f3xx_hal_rtc_ex.c **** 
 265:Drivers/STM32F3xx_HAL_Driver/Src/stm32f3xx_hal_rtc_ex.c ****   /* Enable the write protection for RTC registers */
 266:Drivers/STM32F3xx_HAL_Driver/Src/stm32f3xx_hal_rtc_ex.c ****   __HAL_RTC_WRITEPROTECTION_ENABLE(hrtc);
 228              		.loc 1 266 3 discriminator 2 view .LVU70
 229              		.loc 1 266 3 discriminator 2 view .LVU71
 230 0058 0368     		ldr	r3, [r0]
 231 005a FF22     		movs	r2, #255
 232 005c 5A62     		str	r2, [r3, #36]
 267:Drivers/STM32F3xx_HAL_Driver/Src/stm32f3xx_hal_rtc_ex.c **** 
 268:Drivers/STM32F3xx_HAL_Driver/Src/stm32f3xx_hal_rtc_ex.c ****   /* RTC Timestamp Interrupt Configuration: EXTI configuration */
 269:Drivers/STM32F3xx_HAL_Driver/Src/stm32f3xx_hal_rtc_ex.c ****   __HAL_RTC_TAMPER_TIMESTAMP_EXTI_ENABLE_IT();
 233              		.loc 1 269 3 discriminator 2 view .LVU72
 234 005e 094B     		ldr	r3, .L15
 235 0060 1A68     		ldr	r2, [r3]
 236 0062 42F40022 		orr	r2, r2, #524288
 237 0066 1A60     		str	r2, [r3]
 270:Drivers/STM32F3xx_HAL_Driver/Src/stm32f3xx_hal_rtc_ex.c ****   __HAL_RTC_TAMPER_TIMESTAMP_EXTI_ENABLE_RISING_EDGE();
 238              		.loc 1 270 3 discriminator 2 view .LVU73
 239 0068 9A68     		ldr	r2, [r3, #8]
 240 006a 42F40022 		orr	r2, r2, #524288
 241 006e 9A60     		str	r2, [r3, #8]
 271:Drivers/STM32F3xx_HAL_Driver/Src/stm32f3xx_hal_rtc_ex.c **** 
 272:Drivers/STM32F3xx_HAL_Driver/Src/stm32f3xx_hal_rtc_ex.c ****   /* Change RTC state back to READY */
ARM GAS  /tmp/ccpBOonR.s 			page 10


 273:Drivers/STM32F3xx_HAL_Driver/Src/stm32f3xx_hal_rtc_ex.c ****   hrtc->State = HAL_RTC_STATE_READY;
 242              		.loc 1 273 3 discriminator 2 view .LVU74
 243              		.loc 1 273 15 is_stmt 0 discriminator 2 view .LVU75
 244 0070 4477     		strb	r4, [r0, #29]
 274:Drivers/STM32F3xx_HAL_Driver/Src/stm32f3xx_hal_rtc_ex.c **** 
 275:Drivers/STM32F3xx_HAL_Driver/Src/stm32f3xx_hal_rtc_ex.c ****   /* Process Unlocked */
 276:Drivers/STM32F3xx_HAL_Driver/Src/stm32f3xx_hal_rtc_ex.c ****   __HAL_UNLOCK(hrtc);
 245              		.loc 1 276 3 is_stmt 1 discriminator 2 view .LVU76
 246              		.loc 1 276 3 discriminator 2 view .LVU77
 247 0072 0023     		movs	r3, #0
 248 0074 0377     		strb	r3, [r0, #28]
 277:Drivers/STM32F3xx_HAL_Driver/Src/stm32f3xx_hal_rtc_ex.c **** 
 278:Drivers/STM32F3xx_HAL_Driver/Src/stm32f3xx_hal_rtc_ex.c ****   return HAL_OK;
 249              		.loc 1 278 3 discriminator 2 view .LVU78
 250              		.loc 1 278 10 is_stmt 0 discriminator 2 view .LVU79
 251 0076 1846     		mov	r0, r3
 252              	.LVL15:
 279:Drivers/STM32F3xx_HAL_Driver/Src/stm32f3xx_hal_rtc_ex.c **** }
 253              		.loc 1 279 1 discriminator 2 view .LVU80
 254 0078 5DF8044B 		ldr	r4, [sp], #4
 255              	.LCFI3:
 256              		.cfi_restore 4
 257              		.cfi_def_cfa_offset 0
 258 007c 7047     		bx	lr
 259              	.LVL16:
 260              	.L10:
 236:Drivers/STM32F3xx_HAL_Driver/Src/stm32f3xx_hal_rtc_ex.c **** 
 261              		.loc 1 236 3 view .LVU81
 262 007e 0220     		movs	r0, #2
 263              	.LVL17:
 264              		.loc 1 279 1 view .LVU82
 265 0080 7047     		bx	lr
 266              	.L16:
 267 0082 00BF     		.align	2
 268              	.L15:
 269 0084 00040140 		.word	1073808384
 270              		.cfi_endproc
 271              	.LFE131:
 273              		.section	.text.HAL_RTCEx_DeactivateTimeStamp,"ax",%progbits
 274              		.align	1
 275              		.global	HAL_RTCEx_DeactivateTimeStamp
 276              		.syntax unified
 277              		.thumb
 278              		.thumb_func
 279              		.fpu fpv4-sp-d16
 281              	HAL_RTCEx_DeactivateTimeStamp:
 282              	.LVL18:
 283              	.LFB132:
 280:Drivers/STM32F3xx_HAL_Driver/Src/stm32f3xx_hal_rtc_ex.c **** 
 281:Drivers/STM32F3xx_HAL_Driver/Src/stm32f3xx_hal_rtc_ex.c **** /**
 282:Drivers/STM32F3xx_HAL_Driver/Src/stm32f3xx_hal_rtc_ex.c ****   * @brief  Deactivates Timestamp.
 283:Drivers/STM32F3xx_HAL_Driver/Src/stm32f3xx_hal_rtc_ex.c ****   * @param  hrtc pointer to a RTC_HandleTypeDef structure that contains
 284:Drivers/STM32F3xx_HAL_Driver/Src/stm32f3xx_hal_rtc_ex.c ****   *                the configuration information for RTC.
 285:Drivers/STM32F3xx_HAL_Driver/Src/stm32f3xx_hal_rtc_ex.c ****   * @retval HAL status
 286:Drivers/STM32F3xx_HAL_Driver/Src/stm32f3xx_hal_rtc_ex.c ****   */
 287:Drivers/STM32F3xx_HAL_Driver/Src/stm32f3xx_hal_rtc_ex.c **** HAL_StatusTypeDef HAL_RTCEx_DeactivateTimeStamp(RTC_HandleTypeDef *hrtc)
 288:Drivers/STM32F3xx_HAL_Driver/Src/stm32f3xx_hal_rtc_ex.c **** {
ARM GAS  /tmp/ccpBOonR.s 			page 11


 284              		.loc 1 288 1 is_stmt 1 view -0
 285              		.cfi_startproc
 286              		@ args = 0, pretend = 0, frame = 0
 287              		@ frame_needed = 0, uses_anonymous_args = 0
 288              		@ link register save eliminated.
 289:Drivers/STM32F3xx_HAL_Driver/Src/stm32f3xx_hal_rtc_ex.c ****   uint32_t tmpreg = 0U;
 289              		.loc 1 289 3 view .LVU84
 290:Drivers/STM32F3xx_HAL_Driver/Src/stm32f3xx_hal_rtc_ex.c **** 
 291:Drivers/STM32F3xx_HAL_Driver/Src/stm32f3xx_hal_rtc_ex.c ****   /* Process Locked */
 292:Drivers/STM32F3xx_HAL_Driver/Src/stm32f3xx_hal_rtc_ex.c ****   __HAL_LOCK(hrtc);
 290              		.loc 1 292 3 view .LVU85
 291              		.loc 1 292 3 view .LVU86
 292 0000 037F     		ldrb	r3, [r0, #28]	@ zero_extendqisi2
 293 0002 012B     		cmp	r3, #1
 294 0004 1DD0     		beq	.L19
 295              		.loc 1 292 3 discriminator 2 view .LVU87
 296 0006 0122     		movs	r2, #1
 297 0008 0277     		strb	r2, [r0, #28]
 293:Drivers/STM32F3xx_HAL_Driver/Src/stm32f3xx_hal_rtc_ex.c **** 
 294:Drivers/STM32F3xx_HAL_Driver/Src/stm32f3xx_hal_rtc_ex.c ****   hrtc->State = HAL_RTC_STATE_BUSY;
 298              		.loc 1 294 3 discriminator 2 view .LVU88
 299              		.loc 1 294 15 is_stmt 0 discriminator 2 view .LVU89
 300 000a 0223     		movs	r3, #2
 301 000c 4377     		strb	r3, [r0, #29]
 295:Drivers/STM32F3xx_HAL_Driver/Src/stm32f3xx_hal_rtc_ex.c **** 
 296:Drivers/STM32F3xx_HAL_Driver/Src/stm32f3xx_hal_rtc_ex.c ****   /* Disable the write protection for RTC registers */
 297:Drivers/STM32F3xx_HAL_Driver/Src/stm32f3xx_hal_rtc_ex.c ****   __HAL_RTC_WRITEPROTECTION_DISABLE(hrtc);
 302              		.loc 1 297 3 is_stmt 1 discriminator 2 view .LVU90
 303              		.loc 1 297 3 discriminator 2 view .LVU91
 304 000e 0368     		ldr	r3, [r0]
 305 0010 CA21     		movs	r1, #202
 306 0012 5962     		str	r1, [r3, #36]
 307              		.loc 1 297 3 discriminator 2 view .LVU92
 308 0014 0368     		ldr	r3, [r0]
 309 0016 5321     		movs	r1, #83
 310 0018 5962     		str	r1, [r3, #36]
 298:Drivers/STM32F3xx_HAL_Driver/Src/stm32f3xx_hal_rtc_ex.c **** 
 299:Drivers/STM32F3xx_HAL_Driver/Src/stm32f3xx_hal_rtc_ex.c ****   /* In case of interrupt mode is used, the interrupt source must disabled */
 300:Drivers/STM32F3xx_HAL_Driver/Src/stm32f3xx_hal_rtc_ex.c ****   __HAL_RTC_TIMESTAMP_DISABLE_IT(hrtc, RTC_IT_TS);
 311              		.loc 1 300 3 discriminator 2 view .LVU93
 312 001a 0168     		ldr	r1, [r0]
 313 001c 8B68     		ldr	r3, [r1, #8]
 314 001e 23F40043 		bic	r3, r3, #32768
 315 0022 8B60     		str	r3, [r1, #8]
 301:Drivers/STM32F3xx_HAL_Driver/Src/stm32f3xx_hal_rtc_ex.c **** 
 302:Drivers/STM32F3xx_HAL_Driver/Src/stm32f3xx_hal_rtc_ex.c ****   /* Get the RTC_CR register and clear the bits to be configured */
 303:Drivers/STM32F3xx_HAL_Driver/Src/stm32f3xx_hal_rtc_ex.c ****   tmpreg = (uint32_t)(hrtc->Instance->CR & (uint32_t)~(RTC_CR_TSEDGE | RTC_CR_TSE));
 316              		.loc 1 303 3 discriminator 2 view .LVU94
 317              		.loc 1 303 27 is_stmt 0 discriminator 2 view .LVU95
 318 0024 0168     		ldr	r1, [r0]
 319              		.loc 1 303 37 discriminator 2 view .LVU96
 320 0026 8B68     		ldr	r3, [r1, #8]
 321              		.loc 1 303 10 discriminator 2 view .LVU97
 322 0028 23F40063 		bic	r3, r3, #2048
 323 002c 23F00803 		bic	r3, r3, #8
 324              	.LVL19:
 304:Drivers/STM32F3xx_HAL_Driver/Src/stm32f3xx_hal_rtc_ex.c **** 
ARM GAS  /tmp/ccpBOonR.s 			page 12


 305:Drivers/STM32F3xx_HAL_Driver/Src/stm32f3xx_hal_rtc_ex.c ****   /* Configure the Timestamp TSEDGE and Enable bits */
 306:Drivers/STM32F3xx_HAL_Driver/Src/stm32f3xx_hal_rtc_ex.c ****   hrtc->Instance->CR = (uint32_t)tmpreg;
 325              		.loc 1 306 3 is_stmt 1 discriminator 2 view .LVU98
 326              		.loc 1 306 22 is_stmt 0 discriminator 2 view .LVU99
 327 0030 8B60     		str	r3, [r1, #8]
 307:Drivers/STM32F3xx_HAL_Driver/Src/stm32f3xx_hal_rtc_ex.c **** 
 308:Drivers/STM32F3xx_HAL_Driver/Src/stm32f3xx_hal_rtc_ex.c ****   /* Enable the write protection for RTC registers */
 309:Drivers/STM32F3xx_HAL_Driver/Src/stm32f3xx_hal_rtc_ex.c ****   __HAL_RTC_WRITEPROTECTION_ENABLE(hrtc);
 328              		.loc 1 309 3 is_stmt 1 discriminator 2 view .LVU100
 329              		.loc 1 309 3 discriminator 2 view .LVU101
 330 0032 0368     		ldr	r3, [r0]
 331              	.LVL20:
 332              		.loc 1 309 3 is_stmt 0 discriminator 2 view .LVU102
 333 0034 FF21     		movs	r1, #255
 334              	.LVL21:
 335              		.loc 1 309 3 discriminator 2 view .LVU103
 336 0036 5962     		str	r1, [r3, #36]
 310:Drivers/STM32F3xx_HAL_Driver/Src/stm32f3xx_hal_rtc_ex.c **** 
 311:Drivers/STM32F3xx_HAL_Driver/Src/stm32f3xx_hal_rtc_ex.c ****   hrtc->State = HAL_RTC_STATE_READY;
 337              		.loc 1 311 3 is_stmt 1 discriminator 2 view .LVU104
 338              		.loc 1 311 15 is_stmt 0 discriminator 2 view .LVU105
 339 0038 4277     		strb	r2, [r0, #29]
 312:Drivers/STM32F3xx_HAL_Driver/Src/stm32f3xx_hal_rtc_ex.c **** 
 313:Drivers/STM32F3xx_HAL_Driver/Src/stm32f3xx_hal_rtc_ex.c ****   /* Process Unlocked */
 314:Drivers/STM32F3xx_HAL_Driver/Src/stm32f3xx_hal_rtc_ex.c ****   __HAL_UNLOCK(hrtc);
 340              		.loc 1 314 3 is_stmt 1 discriminator 2 view .LVU106
 341              		.loc 1 314 3 discriminator 2 view .LVU107
 342 003a 0023     		movs	r3, #0
 343 003c 0377     		strb	r3, [r0, #28]
 315:Drivers/STM32F3xx_HAL_Driver/Src/stm32f3xx_hal_rtc_ex.c **** 
 316:Drivers/STM32F3xx_HAL_Driver/Src/stm32f3xx_hal_rtc_ex.c ****   return HAL_OK;
 344              		.loc 1 316 3 discriminator 2 view .LVU108
 345              		.loc 1 316 10 is_stmt 0 discriminator 2 view .LVU109
 346 003e 1846     		mov	r0, r3
 347              	.LVL22:
 348              		.loc 1 316 10 discriminator 2 view .LVU110
 349 0040 7047     		bx	lr
 350              	.LVL23:
 351              	.L19:
 292:Drivers/STM32F3xx_HAL_Driver/Src/stm32f3xx_hal_rtc_ex.c **** 
 352              		.loc 1 292 3 view .LVU111
 353 0042 0220     		movs	r0, #2
 354              	.LVL24:
 317:Drivers/STM32F3xx_HAL_Driver/Src/stm32f3xx_hal_rtc_ex.c **** }
 355              		.loc 1 317 1 view .LVU112
 356 0044 7047     		bx	lr
 357              		.cfi_endproc
 358              	.LFE132:
 360              		.section	.text.HAL_RTCEx_GetTimeStamp,"ax",%progbits
 361              		.align	1
 362              		.global	HAL_RTCEx_GetTimeStamp
 363              		.syntax unified
 364              		.thumb
 365              		.thumb_func
 366              		.fpu fpv4-sp-d16
 368              	HAL_RTCEx_GetTimeStamp:
 369              	.LVL25:
ARM GAS  /tmp/ccpBOonR.s 			page 13


 370              	.LFB133:
 318:Drivers/STM32F3xx_HAL_Driver/Src/stm32f3xx_hal_rtc_ex.c **** 
 319:Drivers/STM32F3xx_HAL_Driver/Src/stm32f3xx_hal_rtc_ex.c **** /**
 320:Drivers/STM32F3xx_HAL_Driver/Src/stm32f3xx_hal_rtc_ex.c ****   * @brief  Gets the RTC Timestamp value.
 321:Drivers/STM32F3xx_HAL_Driver/Src/stm32f3xx_hal_rtc_ex.c ****   * @param  hrtc pointer to a RTC_HandleTypeDef structure that contains
 322:Drivers/STM32F3xx_HAL_Driver/Src/stm32f3xx_hal_rtc_ex.c ****   *                the configuration information for RTC.
 323:Drivers/STM32F3xx_HAL_Driver/Src/stm32f3xx_hal_rtc_ex.c ****   * @param  sTimeStamp Pointer to Time structure
 324:Drivers/STM32F3xx_HAL_Driver/Src/stm32f3xx_hal_rtc_ex.c ****   * @param  sTimeStampDate Pointer to Date structure
 325:Drivers/STM32F3xx_HAL_Driver/Src/stm32f3xx_hal_rtc_ex.c ****   * @param  Format specifies the format of the entered parameters.
 326:Drivers/STM32F3xx_HAL_Driver/Src/stm32f3xx_hal_rtc_ex.c ****   *          This parameter can be one of the following values:
 327:Drivers/STM32F3xx_HAL_Driver/Src/stm32f3xx_hal_rtc_ex.c ****   *             @arg RTC_FORMAT_BIN: Binary data format
 328:Drivers/STM32F3xx_HAL_Driver/Src/stm32f3xx_hal_rtc_ex.c ****   *             @arg RTC_FORMAT_BCD: BCD data format
 329:Drivers/STM32F3xx_HAL_Driver/Src/stm32f3xx_hal_rtc_ex.c ****   * @retval HAL status
 330:Drivers/STM32F3xx_HAL_Driver/Src/stm32f3xx_hal_rtc_ex.c ****   */
 331:Drivers/STM32F3xx_HAL_Driver/Src/stm32f3xx_hal_rtc_ex.c **** HAL_StatusTypeDef HAL_RTCEx_GetTimeStamp(RTC_HandleTypeDef *hrtc, RTC_TimeTypeDef *sTimeStamp, RTC_
 332:Drivers/STM32F3xx_HAL_Driver/Src/stm32f3xx_hal_rtc_ex.c **** {
 371              		.loc 1 332 1 is_stmt 1 view -0
 372              		.cfi_startproc
 373              		@ args = 0, pretend = 0, frame = 0
 374              		@ frame_needed = 0, uses_anonymous_args = 0
 375              		.loc 1 332 1 is_stmt 0 view .LVU114
 376 0000 70B5     		push	{r4, r5, r6, lr}
 377              	.LCFI4:
 378              		.cfi_def_cfa_offset 16
 379              		.cfi_offset 4, -16
 380              		.cfi_offset 5, -12
 381              		.cfi_offset 6, -8
 382              		.cfi_offset 14, -4
 383 0002 0646     		mov	r6, r0
 384 0004 0C46     		mov	r4, r1
 385 0006 1546     		mov	r5, r2
 333:Drivers/STM32F3xx_HAL_Driver/Src/stm32f3xx_hal_rtc_ex.c ****   uint32_t tmptime = 0U;
 386              		.loc 1 333 3 is_stmt 1 view .LVU115
 387              	.LVL26:
 334:Drivers/STM32F3xx_HAL_Driver/Src/stm32f3xx_hal_rtc_ex.c ****   uint32_t tmpdate = 0U;
 388              		.loc 1 334 3 view .LVU116
 335:Drivers/STM32F3xx_HAL_Driver/Src/stm32f3xx_hal_rtc_ex.c **** 
 336:Drivers/STM32F3xx_HAL_Driver/Src/stm32f3xx_hal_rtc_ex.c ****   /* Check the parameters */
 337:Drivers/STM32F3xx_HAL_Driver/Src/stm32f3xx_hal_rtc_ex.c ****   assert_param(IS_RTC_FORMAT(Format));
 389              		.loc 1 337 3 view .LVU117
 338:Drivers/STM32F3xx_HAL_Driver/Src/stm32f3xx_hal_rtc_ex.c **** 
 339:Drivers/STM32F3xx_HAL_Driver/Src/stm32f3xx_hal_rtc_ex.c ****   /* Get the Timestamp time and date registers values */
 340:Drivers/STM32F3xx_HAL_Driver/Src/stm32f3xx_hal_rtc_ex.c ****   tmptime = (uint32_t)(hrtc->Instance->TSTR & RTC_TR_RESERVED_MASK);
 390              		.loc 1 340 3 view .LVU118
 391              		.loc 1 340 28 is_stmt 0 view .LVU119
 392 0008 0168     		ldr	r1, [r0]
 393              	.LVL27:
 394              		.loc 1 340 38 view .LVU120
 395 000a 0A6B     		ldr	r2, [r1, #48]
 396              	.LVL28:
 397              		.loc 1 340 11 view .LVU121
 398 000c 02F07F32 		and	r2, r2, #2139062143
 399 0010 22F0FE42 		bic	r2, r2, #2130706432
 400              	.LVL29:
 341:Drivers/STM32F3xx_HAL_Driver/Src/stm32f3xx_hal_rtc_ex.c ****   tmpdate = (uint32_t)(hrtc->Instance->TSDR & RTC_DR_RESERVED_MASK);
 401              		.loc 1 341 3 is_stmt 1 view .LVU122
 402              		.loc 1 341 38 is_stmt 0 view .LVU123
ARM GAS  /tmp/ccpBOonR.s 			page 14


 403 0014 496B     		ldr	r1, [r1, #52]
 404              		.loc 1 341 11 view .LVU124
 405 0016 21F07F41 		bic	r1, r1, #-16777216
 406 001a 21F0C001 		bic	r1, r1, #192
 407              	.LVL30:
 342:Drivers/STM32F3xx_HAL_Driver/Src/stm32f3xx_hal_rtc_ex.c **** 
 343:Drivers/STM32F3xx_HAL_Driver/Src/stm32f3xx_hal_rtc_ex.c ****   /* Fill the Time structure fields with the read parameters */
 344:Drivers/STM32F3xx_HAL_Driver/Src/stm32f3xx_hal_rtc_ex.c ****   sTimeStamp->Hours      = (uint8_t)((tmptime & (RTC_TSTR_HT  | RTC_TSTR_HU))  >> RTC_TSTR_HU_Pos);
 408              		.loc 1 344 3 is_stmt 1 view .LVU125
 409              		.loc 1 344 28 is_stmt 0 view .LVU126
 410 001e C2F30540 		ubfx	r0, r2, #16, #6
 411              	.LVL31:
 412              		.loc 1 344 26 view .LVU127
 413 0022 2070     		strb	r0, [r4]
 345:Drivers/STM32F3xx_HAL_Driver/Src/stm32f3xx_hal_rtc_ex.c ****   sTimeStamp->Minutes    = (uint8_t)((tmptime & (RTC_TSTR_MNT | RTC_TSTR_MNU)) >> RTC_TSTR_MNU_Pos)
 414              		.loc 1 345 3 is_stmt 1 view .LVU128
 415              		.loc 1 345 28 is_stmt 0 view .LVU129
 416 0024 C2F30620 		ubfx	r0, r2, #8, #7
 417              		.loc 1 345 26 view .LVU130
 418 0028 6070     		strb	r0, [r4, #1]
 346:Drivers/STM32F3xx_HAL_Driver/Src/stm32f3xx_hal_rtc_ex.c ****   sTimeStamp->Seconds    = (uint8_t)((tmptime & (RTC_TSTR_ST  | RTC_TSTR_SU))  >> RTC_TSTR_SU_Pos);
 419              		.loc 1 346 3 is_stmt 1 view .LVU131
 420              		.loc 1 346 26 is_stmt 0 view .LVU132
 421 002a A270     		strb	r2, [r4, #2]
 347:Drivers/STM32F3xx_HAL_Driver/Src/stm32f3xx_hal_rtc_ex.c ****   sTimeStamp->TimeFormat = (uint8_t)((tmptime & (RTC_TSTR_PM))                 >> RTC_TSTR_PM_Pos);
 422              		.loc 1 347 3 is_stmt 1 view .LVU133
 423              		.loc 1 347 28 is_stmt 0 view .LVU134
 424 002c 920D     		lsrs	r2, r2, #22
 425              	.LVL32:
 426              		.loc 1 347 26 view .LVU135
 427 002e E270     		strb	r2, [r4, #3]
 348:Drivers/STM32F3xx_HAL_Driver/Src/stm32f3xx_hal_rtc_ex.c ****   sTimeStamp->SubSeconds = (uint32_t) hrtc->Instance->TSSSR;
 428              		.loc 1 348 3 is_stmt 1 view .LVU136
 429              		.loc 1 348 43 is_stmt 0 view .LVU137
 430 0030 3268     		ldr	r2, [r6]
 431              		.loc 1 348 53 view .LVU138
 432 0032 926B     		ldr	r2, [r2, #56]
 433              		.loc 1 348 26 view .LVU139
 434 0034 6260     		str	r2, [r4, #4]
 349:Drivers/STM32F3xx_HAL_Driver/Src/stm32f3xx_hal_rtc_ex.c **** 
 350:Drivers/STM32F3xx_HAL_Driver/Src/stm32f3xx_hal_rtc_ex.c ****   /* Fill the Date structure fields with the read parameters */
 351:Drivers/STM32F3xx_HAL_Driver/Src/stm32f3xx_hal_rtc_ex.c ****   sTimeStampDate->Year    = 0U;
 435              		.loc 1 351 3 is_stmt 1 view .LVU140
 436              		.loc 1 351 27 is_stmt 0 view .LVU141
 437 0036 0022     		movs	r2, #0
 438 0038 EA70     		strb	r2, [r5, #3]
 352:Drivers/STM32F3xx_HAL_Driver/Src/stm32f3xx_hal_rtc_ex.c ****   sTimeStampDate->Month   = (uint8_t)((tmpdate & (RTC_TSDR_MT | RTC_TSDR_MU)) >> RTC_TSDR_MU_Pos);
 439              		.loc 1 352 3 is_stmt 1 view .LVU142
 440              		.loc 1 352 29 is_stmt 0 view .LVU143
 441 003a C1F30422 		ubfx	r2, r1, #8, #5
 442              		.loc 1 352 27 view .LVU144
 443 003e 6A70     		strb	r2, [r5, #1]
 353:Drivers/STM32F3xx_HAL_Driver/Src/stm32f3xx_hal_rtc_ex.c ****   sTimeStampDate->Date    = (uint8_t)((tmpdate & (RTC_TSDR_DT | RTC_TSDR_DU)) >> RTC_TSDR_DU_Pos);
 444              		.loc 1 353 3 is_stmt 1 view .LVU145
 445              		.loc 1 353 27 is_stmt 0 view .LVU146
 446 0040 A970     		strb	r1, [r5, #2]
 354:Drivers/STM32F3xx_HAL_Driver/Src/stm32f3xx_hal_rtc_ex.c ****   sTimeStampDate->WeekDay = (uint8_t)((tmpdate & (RTC_TSDR_WDU))              >> RTC_TSDR_WDU_Pos);
ARM GAS  /tmp/ccpBOonR.s 			page 15


 447              		.loc 1 354 3 is_stmt 1 view .LVU147
 448              		.loc 1 354 29 is_stmt 0 view .LVU148
 449 0042 C1F34231 		ubfx	r1, r1, #13, #3
 450              	.LVL33:
 451              		.loc 1 354 27 view .LVU149
 452 0046 2970     		strb	r1, [r5]
 355:Drivers/STM32F3xx_HAL_Driver/Src/stm32f3xx_hal_rtc_ex.c **** 
 356:Drivers/STM32F3xx_HAL_Driver/Src/stm32f3xx_hal_rtc_ex.c ****   /* Check the input parameters format */
 357:Drivers/STM32F3xx_HAL_Driver/Src/stm32f3xx_hal_rtc_ex.c ****   if (Format == RTC_FORMAT_BIN)
 453              		.loc 1 357 3 is_stmt 1 view .LVU150
 454              		.loc 1 357 6 is_stmt 0 view .LVU151
 455 0048 3BB1     		cbz	r3, .L23
 456              	.LVL34:
 457              	.L21:
 358:Drivers/STM32F3xx_HAL_Driver/Src/stm32f3xx_hal_rtc_ex.c ****   {
 359:Drivers/STM32F3xx_HAL_Driver/Src/stm32f3xx_hal_rtc_ex.c ****     /* Convert the Timestamp structure parameters to Binary format */
 360:Drivers/STM32F3xx_HAL_Driver/Src/stm32f3xx_hal_rtc_ex.c ****     sTimeStamp->Hours   = (uint8_t)RTC_Bcd2ToByte(sTimeStamp->Hours);
 361:Drivers/STM32F3xx_HAL_Driver/Src/stm32f3xx_hal_rtc_ex.c ****     sTimeStamp->Minutes = (uint8_t)RTC_Bcd2ToByte(sTimeStamp->Minutes);
 362:Drivers/STM32F3xx_HAL_Driver/Src/stm32f3xx_hal_rtc_ex.c ****     sTimeStamp->Seconds = (uint8_t)RTC_Bcd2ToByte(sTimeStamp->Seconds);
 363:Drivers/STM32F3xx_HAL_Driver/Src/stm32f3xx_hal_rtc_ex.c **** 
 364:Drivers/STM32F3xx_HAL_Driver/Src/stm32f3xx_hal_rtc_ex.c ****     /* Convert the DateTimeStamp structure parameters to Binary format */
 365:Drivers/STM32F3xx_HAL_Driver/Src/stm32f3xx_hal_rtc_ex.c ****     sTimeStampDate->Month   = (uint8_t)RTC_Bcd2ToByte(sTimeStampDate->Month);
 366:Drivers/STM32F3xx_HAL_Driver/Src/stm32f3xx_hal_rtc_ex.c ****     sTimeStampDate->Date    = (uint8_t)RTC_Bcd2ToByte(sTimeStampDate->Date);
 367:Drivers/STM32F3xx_HAL_Driver/Src/stm32f3xx_hal_rtc_ex.c ****     sTimeStampDate->WeekDay = (uint8_t)RTC_Bcd2ToByte(sTimeStampDate->WeekDay);
 368:Drivers/STM32F3xx_HAL_Driver/Src/stm32f3xx_hal_rtc_ex.c ****   }
 369:Drivers/STM32F3xx_HAL_Driver/Src/stm32f3xx_hal_rtc_ex.c **** 
 370:Drivers/STM32F3xx_HAL_Driver/Src/stm32f3xx_hal_rtc_ex.c ****   /* Clear the Timestamp Flag */
 371:Drivers/STM32F3xx_HAL_Driver/Src/stm32f3xx_hal_rtc_ex.c ****   __HAL_RTC_TIMESTAMP_CLEAR_FLAG(hrtc, RTC_FLAG_TSF);
 458              		.loc 1 371 3 is_stmt 1 view .LVU152
 459 004a 3268     		ldr	r2, [r6]
 460 004c D368     		ldr	r3, [r2, #12]
 461 004e DBB2     		uxtb	r3, r3
 462 0050 63F40863 		orn	r3, r3, #2176
 463 0054 D360     		str	r3, [r2, #12]
 372:Drivers/STM32F3xx_HAL_Driver/Src/stm32f3xx_hal_rtc_ex.c **** 
 373:Drivers/STM32F3xx_HAL_Driver/Src/stm32f3xx_hal_rtc_ex.c ****   return HAL_OK;
 464              		.loc 1 373 3 view .LVU153
 374:Drivers/STM32F3xx_HAL_Driver/Src/stm32f3xx_hal_rtc_ex.c **** }
 465              		.loc 1 374 1 is_stmt 0 view .LVU154
 466 0056 0020     		movs	r0, #0
 467 0058 70BD     		pop	{r4, r5, r6, pc}
 468              	.LVL35:
 469              	.L23:
 360:Drivers/STM32F3xx_HAL_Driver/Src/stm32f3xx_hal_rtc_ex.c ****     sTimeStamp->Minutes = (uint8_t)RTC_Bcd2ToByte(sTimeStamp->Minutes);
 470              		.loc 1 360 5 is_stmt 1 view .LVU155
 360:Drivers/STM32F3xx_HAL_Driver/Src/stm32f3xx_hal_rtc_ex.c ****     sTimeStamp->Minutes = (uint8_t)RTC_Bcd2ToByte(sTimeStamp->Minutes);
 471              		.loc 1 360 36 is_stmt 0 view .LVU156
 472 005a 2078     		ldrb	r0, [r4]	@ zero_extendqisi2
 473 005c FFF7FEFF 		bl	RTC_Bcd2ToByte
 474              	.LVL36:
 360:Drivers/STM32F3xx_HAL_Driver/Src/stm32f3xx_hal_rtc_ex.c ****     sTimeStamp->Minutes = (uint8_t)RTC_Bcd2ToByte(sTimeStamp->Minutes);
 475              		.loc 1 360 25 view .LVU157
 476 0060 2070     		strb	r0, [r4]
 361:Drivers/STM32F3xx_HAL_Driver/Src/stm32f3xx_hal_rtc_ex.c ****     sTimeStamp->Seconds = (uint8_t)RTC_Bcd2ToByte(sTimeStamp->Seconds);
 477              		.loc 1 361 5 is_stmt 1 view .LVU158
 361:Drivers/STM32F3xx_HAL_Driver/Src/stm32f3xx_hal_rtc_ex.c ****     sTimeStamp->Seconds = (uint8_t)RTC_Bcd2ToByte(sTimeStamp->Seconds);
 478              		.loc 1 361 36 is_stmt 0 view .LVU159
ARM GAS  /tmp/ccpBOonR.s 			page 16


 479 0062 6078     		ldrb	r0, [r4, #1]	@ zero_extendqisi2
 480 0064 FFF7FEFF 		bl	RTC_Bcd2ToByte
 481              	.LVL37:
 361:Drivers/STM32F3xx_HAL_Driver/Src/stm32f3xx_hal_rtc_ex.c ****     sTimeStamp->Seconds = (uint8_t)RTC_Bcd2ToByte(sTimeStamp->Seconds);
 482              		.loc 1 361 25 view .LVU160
 483 0068 6070     		strb	r0, [r4, #1]
 362:Drivers/STM32F3xx_HAL_Driver/Src/stm32f3xx_hal_rtc_ex.c **** 
 484              		.loc 1 362 5 is_stmt 1 view .LVU161
 362:Drivers/STM32F3xx_HAL_Driver/Src/stm32f3xx_hal_rtc_ex.c **** 
 485              		.loc 1 362 36 is_stmt 0 view .LVU162
 486 006a A078     		ldrb	r0, [r4, #2]	@ zero_extendqisi2
 487 006c FFF7FEFF 		bl	RTC_Bcd2ToByte
 488              	.LVL38:
 362:Drivers/STM32F3xx_HAL_Driver/Src/stm32f3xx_hal_rtc_ex.c **** 
 489              		.loc 1 362 25 view .LVU163
 490 0070 A070     		strb	r0, [r4, #2]
 365:Drivers/STM32F3xx_HAL_Driver/Src/stm32f3xx_hal_rtc_ex.c ****     sTimeStampDate->Date    = (uint8_t)RTC_Bcd2ToByte(sTimeStampDate->Date);
 491              		.loc 1 365 5 is_stmt 1 view .LVU164
 365:Drivers/STM32F3xx_HAL_Driver/Src/stm32f3xx_hal_rtc_ex.c ****     sTimeStampDate->Date    = (uint8_t)RTC_Bcd2ToByte(sTimeStampDate->Date);
 492              		.loc 1 365 40 is_stmt 0 view .LVU165
 493 0072 6878     		ldrb	r0, [r5, #1]	@ zero_extendqisi2
 494 0074 FFF7FEFF 		bl	RTC_Bcd2ToByte
 495              	.LVL39:
 365:Drivers/STM32F3xx_HAL_Driver/Src/stm32f3xx_hal_rtc_ex.c ****     sTimeStampDate->Date    = (uint8_t)RTC_Bcd2ToByte(sTimeStampDate->Date);
 496              		.loc 1 365 29 view .LVU166
 497 0078 6870     		strb	r0, [r5, #1]
 366:Drivers/STM32F3xx_HAL_Driver/Src/stm32f3xx_hal_rtc_ex.c ****     sTimeStampDate->WeekDay = (uint8_t)RTC_Bcd2ToByte(sTimeStampDate->WeekDay);
 498              		.loc 1 366 5 is_stmt 1 view .LVU167
 366:Drivers/STM32F3xx_HAL_Driver/Src/stm32f3xx_hal_rtc_ex.c ****     sTimeStampDate->WeekDay = (uint8_t)RTC_Bcd2ToByte(sTimeStampDate->WeekDay);
 499              		.loc 1 366 40 is_stmt 0 view .LVU168
 500 007a A878     		ldrb	r0, [r5, #2]	@ zero_extendqisi2
 501 007c FFF7FEFF 		bl	RTC_Bcd2ToByte
 502              	.LVL40:
 366:Drivers/STM32F3xx_HAL_Driver/Src/stm32f3xx_hal_rtc_ex.c ****     sTimeStampDate->WeekDay = (uint8_t)RTC_Bcd2ToByte(sTimeStampDate->WeekDay);
 503              		.loc 1 366 29 view .LVU169
 504 0080 A870     		strb	r0, [r5, #2]
 367:Drivers/STM32F3xx_HAL_Driver/Src/stm32f3xx_hal_rtc_ex.c ****   }
 505              		.loc 1 367 5 is_stmt 1 view .LVU170
 367:Drivers/STM32F3xx_HAL_Driver/Src/stm32f3xx_hal_rtc_ex.c ****   }
 506              		.loc 1 367 40 is_stmt 0 view .LVU171
 507 0082 2878     		ldrb	r0, [r5]	@ zero_extendqisi2
 508 0084 FFF7FEFF 		bl	RTC_Bcd2ToByte
 509              	.LVL41:
 367:Drivers/STM32F3xx_HAL_Driver/Src/stm32f3xx_hal_rtc_ex.c ****   }
 510              		.loc 1 367 29 view .LVU172
 511 0088 2870     		strb	r0, [r5]
 512 008a DEE7     		b	.L21
 513              		.cfi_endproc
 514              	.LFE133:
 516              		.section	.text.HAL_RTCEx_SetTamper,"ax",%progbits
 517              		.align	1
 518              		.global	HAL_RTCEx_SetTamper
 519              		.syntax unified
 520              		.thumb
 521              		.thumb_func
 522              		.fpu fpv4-sp-d16
 524              	HAL_RTCEx_SetTamper:
ARM GAS  /tmp/ccpBOonR.s 			page 17


 525              	.LVL42:
 526              	.LFB134:
 375:Drivers/STM32F3xx_HAL_Driver/Src/stm32f3xx_hal_rtc_ex.c **** 
 376:Drivers/STM32F3xx_HAL_Driver/Src/stm32f3xx_hal_rtc_ex.c **** /**
 377:Drivers/STM32F3xx_HAL_Driver/Src/stm32f3xx_hal_rtc_ex.c ****   * @brief  Sets Tamper.
 378:Drivers/STM32F3xx_HAL_Driver/Src/stm32f3xx_hal_rtc_ex.c ****   * @note   By calling this API the tamper global interrupt will be disabled.
 379:Drivers/STM32F3xx_HAL_Driver/Src/stm32f3xx_hal_rtc_ex.c ****   * @param  hrtc pointer to a RTC_HandleTypeDef structure that contains
 380:Drivers/STM32F3xx_HAL_Driver/Src/stm32f3xx_hal_rtc_ex.c ****   *                the configuration information for RTC.
 381:Drivers/STM32F3xx_HAL_Driver/Src/stm32f3xx_hal_rtc_ex.c ****   * @param  sTamper Pointer to Tamper Structure.
 382:Drivers/STM32F3xx_HAL_Driver/Src/stm32f3xx_hal_rtc_ex.c ****   * @retval HAL status
 383:Drivers/STM32F3xx_HAL_Driver/Src/stm32f3xx_hal_rtc_ex.c ****   */
 384:Drivers/STM32F3xx_HAL_Driver/Src/stm32f3xx_hal_rtc_ex.c **** HAL_StatusTypeDef HAL_RTCEx_SetTamper(RTC_HandleTypeDef *hrtc, RTC_TamperTypeDef *sTamper)
 385:Drivers/STM32F3xx_HAL_Driver/Src/stm32f3xx_hal_rtc_ex.c **** {
 527              		.loc 1 385 1 is_stmt 1 view -0
 528              		.cfi_startproc
 529              		@ args = 0, pretend = 0, frame = 0
 530              		@ frame_needed = 0, uses_anonymous_args = 0
 531              		@ link register save eliminated.
 386:Drivers/STM32F3xx_HAL_Driver/Src/stm32f3xx_hal_rtc_ex.c ****   uint32_t tmpreg = 0U;
 532              		.loc 1 386 3 view .LVU174
 387:Drivers/STM32F3xx_HAL_Driver/Src/stm32f3xx_hal_rtc_ex.c **** 
 388:Drivers/STM32F3xx_HAL_Driver/Src/stm32f3xx_hal_rtc_ex.c ****   /* Check the parameters */
 389:Drivers/STM32F3xx_HAL_Driver/Src/stm32f3xx_hal_rtc_ex.c ****   assert_param(IS_RTC_TAMPER(sTamper->Tamper));
 533              		.loc 1 389 3 view .LVU175
 390:Drivers/STM32F3xx_HAL_Driver/Src/stm32f3xx_hal_rtc_ex.c ****   assert_param(IS_RTC_TAMPER_TRIGGER(sTamper->Trigger));
 534              		.loc 1 390 3 view .LVU176
 391:Drivers/STM32F3xx_HAL_Driver/Src/stm32f3xx_hal_rtc_ex.c ****   assert_param(IS_RTC_TAMPER_FILTER(sTamper->Filter));
 535              		.loc 1 391 3 view .LVU177
 392:Drivers/STM32F3xx_HAL_Driver/Src/stm32f3xx_hal_rtc_ex.c ****   assert_param(IS_RTC_TAMPER_FILTER_CONFIG_CORRECT(sTamper->Filter, sTamper->Trigger));
 536              		.loc 1 392 3 view .LVU178
 393:Drivers/STM32F3xx_HAL_Driver/Src/stm32f3xx_hal_rtc_ex.c ****   assert_param(IS_RTC_TAMPER_SAMPLING_FREQ(sTamper->SamplingFrequency));
 537              		.loc 1 393 3 view .LVU179
 394:Drivers/STM32F3xx_HAL_Driver/Src/stm32f3xx_hal_rtc_ex.c ****   assert_param(IS_RTC_TAMPER_PRECHARGE_DURATION(sTamper->PrechargeDuration));
 538              		.loc 1 394 3 view .LVU180
 395:Drivers/STM32F3xx_HAL_Driver/Src/stm32f3xx_hal_rtc_ex.c ****   assert_param(IS_RTC_TAMPER_PULLUP_STATE(sTamper->TamperPullUp));
 539              		.loc 1 395 3 view .LVU181
 396:Drivers/STM32F3xx_HAL_Driver/Src/stm32f3xx_hal_rtc_ex.c ****   assert_param(IS_RTC_TAMPER_TIMESTAMPONTAMPER_DETECTION(sTamper->TimeStampOnTamperDetection));
 540              		.loc 1 396 3 view .LVU182
 397:Drivers/STM32F3xx_HAL_Driver/Src/stm32f3xx_hal_rtc_ex.c **** 
 398:Drivers/STM32F3xx_HAL_Driver/Src/stm32f3xx_hal_rtc_ex.c ****   /* Process Locked */
 399:Drivers/STM32F3xx_HAL_Driver/Src/stm32f3xx_hal_rtc_ex.c ****   __HAL_LOCK(hrtc);
 541              		.loc 1 399 3 view .LVU183
 542              		.loc 1 399 3 view .LVU184
 543 0000 037F     		ldrb	r3, [r0, #28]	@ zero_extendqisi2
 544 0002 012B     		cmp	r3, #1
 545 0004 28D0     		beq	.L28
 385:Drivers/STM32F3xx_HAL_Driver/Src/stm32f3xx_hal_rtc_ex.c ****   uint32_t tmpreg = 0U;
 546              		.loc 1 385 1 is_stmt 0 discriminator 2 view .LVU185
 547 0006 30B4     		push	{r4, r5}
 548              	.LCFI5:
 549              		.cfi_def_cfa_offset 8
 550              		.cfi_offset 4, -8
 551              		.cfi_offset 5, -4
 552              		.loc 1 399 3 is_stmt 1 discriminator 2 view .LVU186
 553 0008 0123     		movs	r3, #1
 554 000a 0377     		strb	r3, [r0, #28]
 400:Drivers/STM32F3xx_HAL_Driver/Src/stm32f3xx_hal_rtc_ex.c **** 
ARM GAS  /tmp/ccpBOonR.s 			page 18


 401:Drivers/STM32F3xx_HAL_Driver/Src/stm32f3xx_hal_rtc_ex.c ****   hrtc->State = HAL_RTC_STATE_BUSY;
 555              		.loc 1 401 3 discriminator 2 view .LVU187
 556              		.loc 1 401 15 is_stmt 0 discriminator 2 view .LVU188
 557 000c 0223     		movs	r3, #2
 558 000e 4377     		strb	r3, [r0, #29]
 402:Drivers/STM32F3xx_HAL_Driver/Src/stm32f3xx_hal_rtc_ex.c **** 
 403:Drivers/STM32F3xx_HAL_Driver/Src/stm32f3xx_hal_rtc_ex.c ****   /* Copy control register into temporary variable */
 404:Drivers/STM32F3xx_HAL_Driver/Src/stm32f3xx_hal_rtc_ex.c ****   tmpreg = hrtc->Instance->TAFCR;
 559              		.loc 1 404 3 is_stmt 1 discriminator 2 view .LVU189
 560              		.loc 1 404 16 is_stmt 0 discriminator 2 view .LVU190
 561 0010 0568     		ldr	r5, [r0]
 562              		.loc 1 404 10 discriminator 2 view .LVU191
 563 0012 2B6C     		ldr	r3, [r5, #64]
 564              	.LVL43:
 405:Drivers/STM32F3xx_HAL_Driver/Src/stm32f3xx_hal_rtc_ex.c **** 
 406:Drivers/STM32F3xx_HAL_Driver/Src/stm32f3xx_hal_rtc_ex.c ****   /* Enable selected tamper */
 407:Drivers/STM32F3xx_HAL_Driver/Src/stm32f3xx_hal_rtc_ex.c ****   tmpreg |= (sTamper->Tamper);
 565              		.loc 1 407 3 is_stmt 1 discriminator 2 view .LVU192
 566              		.loc 1 407 21 is_stmt 0 discriminator 2 view .LVU193
 567 0014 0A68     		ldr	r2, [r1]
 568              		.loc 1 407 10 discriminator 2 view .LVU194
 569 0016 1343     		orrs	r3, r3, r2
 570              	.LVL44:
 408:Drivers/STM32F3xx_HAL_Driver/Src/stm32f3xx_hal_rtc_ex.c **** 
 409:Drivers/STM32F3xx_HAL_Driver/Src/stm32f3xx_hal_rtc_ex.c ****   /* Configure the tamper trigger bit (this bit is just on the right of the
 410:Drivers/STM32F3xx_HAL_Driver/Src/stm32f3xx_hal_rtc_ex.c ****        tamper enable bit, hence the one-time right shift before updating it) */
 411:Drivers/STM32F3xx_HAL_Driver/Src/stm32f3xx_hal_rtc_ex.c ****   if (sTamper->Trigger == RTC_TAMPERTRIGGER_FALLINGEDGE)
 571              		.loc 1 411 3 is_stmt 1 discriminator 2 view .LVU195
 572              		.loc 1 411 14 is_stmt 0 discriminator 2 view .LVU196
 573 0018 4C68     		ldr	r4, [r1, #4]
 574              		.loc 1 411 6 discriminator 2 view .LVU197
 575 001a 022C     		cmp	r4, #2
 576 001c 19D0     		beq	.L33
 412:Drivers/STM32F3xx_HAL_Driver/Src/stm32f3xx_hal_rtc_ex.c ****   {
 413:Drivers/STM32F3xx_HAL_Driver/Src/stm32f3xx_hal_rtc_ex.c ****     /* Set the tamper trigger bit (case of falling edge or high level) */
 414:Drivers/STM32F3xx_HAL_Driver/Src/stm32f3xx_hal_rtc_ex.c ****     tmpreg |= (uint32_t)(sTamper->Tamper << 1U);
 415:Drivers/STM32F3xx_HAL_Driver/Src/stm32f3xx_hal_rtc_ex.c ****   }
 416:Drivers/STM32F3xx_HAL_Driver/Src/stm32f3xx_hal_rtc_ex.c ****   else
 417:Drivers/STM32F3xx_HAL_Driver/Src/stm32f3xx_hal_rtc_ex.c ****   {
 418:Drivers/STM32F3xx_HAL_Driver/Src/stm32f3xx_hal_rtc_ex.c ****     /* Clear the tamper trigger bit (case of rising edge or low level) */
 419:Drivers/STM32F3xx_HAL_Driver/Src/stm32f3xx_hal_rtc_ex.c ****     tmpreg &= (uint32_t)~(sTamper->Tamper << 1U);
 577              		.loc 1 419 5 is_stmt 1 view .LVU198
 578              		.loc 1 419 12 is_stmt 0 view .LVU199
 579 001e 23EA4203 		bic	r3, r3, r2, lsl #1
 580              	.LVL45:
 581              	.L27:
 420:Drivers/STM32F3xx_HAL_Driver/Src/stm32f3xx_hal_rtc_ex.c ****   }
 421:Drivers/STM32F3xx_HAL_Driver/Src/stm32f3xx_hal_rtc_ex.c **** 
 422:Drivers/STM32F3xx_HAL_Driver/Src/stm32f3xx_hal_rtc_ex.c ****   /* Clear remaining fields before setting them */
 423:Drivers/STM32F3xx_HAL_Driver/Src/stm32f3xx_hal_rtc_ex.c ****   tmpreg &= ~(RTC_TAMPERFILTER_MASK              | \
 582              		.loc 1 423 3 is_stmt 1 view .LVU200
 583              		.loc 1 423 10 is_stmt 0 view .LVU201
 584 0022 23F47F42 		bic	r2, r3, #65280
 585 0026 22F08002 		bic	r2, r2, #128
 586              	.LVL46:
 424:Drivers/STM32F3xx_HAL_Driver/Src/stm32f3xx_hal_rtc_ex.c ****               RTC_TAMPERSAMPLINGFREQ_RTCCLK_MASK | \
 425:Drivers/STM32F3xx_HAL_Driver/Src/stm32f3xx_hal_rtc_ex.c ****               RTC_TAMPERPRECHARGEDURATION_MASK   | \
ARM GAS  /tmp/ccpBOonR.s 			page 19


 426:Drivers/STM32F3xx_HAL_Driver/Src/stm32f3xx_hal_rtc_ex.c ****               RTC_TAMPER_PULLUP_MASK             | \
 427:Drivers/STM32F3xx_HAL_Driver/Src/stm32f3xx_hal_rtc_ex.c ****               RTC_TIMESTAMPONTAMPERDETECTION_MASK);
 428:Drivers/STM32F3xx_HAL_Driver/Src/stm32f3xx_hal_rtc_ex.c **** 
 429:Drivers/STM32F3xx_HAL_Driver/Src/stm32f3xx_hal_rtc_ex.c ****   /* Set remaining parameters of desired configuration into temporary variable */
 430:Drivers/STM32F3xx_HAL_Driver/Src/stm32f3xx_hal_rtc_ex.c ****   tmpreg |= ((uint32_t)sTamper->Filter            | \
 587              		.loc 1 430 3 is_stmt 1 view .LVU202
 588              		.loc 1 430 31 is_stmt 0 view .LVU203
 589 002a 8B68     		ldr	r3, [r1, #8]
 431:Drivers/STM32F3xx_HAL_Driver/Src/stm32f3xx_hal_rtc_ex.c ****              (uint32_t)sTamper->SamplingFrequency | \
 590              		.loc 1 431 31 view .LVU204
 591 002c CC68     		ldr	r4, [r1, #12]
 430:Drivers/STM32F3xx_HAL_Driver/Src/stm32f3xx_hal_rtc_ex.c ****              (uint32_t)sTamper->SamplingFrequency | \
 592              		.loc 1 430 51 view .LVU205
 593 002e 2343     		orrs	r3, r3, r4
 432:Drivers/STM32F3xx_HAL_Driver/Src/stm32f3xx_hal_rtc_ex.c ****              (uint32_t)sTamper->PrechargeDuration | \
 594              		.loc 1 432 31 view .LVU206
 595 0030 0C69     		ldr	r4, [r1, #16]
 431:Drivers/STM32F3xx_HAL_Driver/Src/stm32f3xx_hal_rtc_ex.c ****              (uint32_t)sTamper->SamplingFrequency | \
 596              		.loc 1 431 51 view .LVU207
 597 0032 2343     		orrs	r3, r3, r4
 433:Drivers/STM32F3xx_HAL_Driver/Src/stm32f3xx_hal_rtc_ex.c ****              (uint32_t)sTamper->TamperPullUp      | \
 598              		.loc 1 433 31 view .LVU208
 599 0034 4C69     		ldr	r4, [r1, #20]
 432:Drivers/STM32F3xx_HAL_Driver/Src/stm32f3xx_hal_rtc_ex.c ****              (uint32_t)sTamper->PrechargeDuration | \
 600              		.loc 1 432 51 view .LVU209
 601 0036 2343     		orrs	r3, r3, r4
 434:Drivers/STM32F3xx_HAL_Driver/Src/stm32f3xx_hal_rtc_ex.c ****              (uint32_t)sTamper->TimeStampOnTamperDetection);
 602              		.loc 1 434 31 view .LVU210
 603 0038 8969     		ldr	r1, [r1, #24]
 604              	.LVL47:
 433:Drivers/STM32F3xx_HAL_Driver/Src/stm32f3xx_hal_rtc_ex.c ****              (uint32_t)sTamper->TamperPullUp      | \
 605              		.loc 1 433 51 view .LVU211
 606 003a 0B43     		orrs	r3, r3, r1
 430:Drivers/STM32F3xx_HAL_Driver/Src/stm32f3xx_hal_rtc_ex.c ****              (uint32_t)sTamper->SamplingFrequency | \
 607              		.loc 1 430 10 view .LVU212
 608 003c 1343     		orrs	r3, r3, r2
 609              	.LVL48:
 435:Drivers/STM32F3xx_HAL_Driver/Src/stm32f3xx_hal_rtc_ex.c **** 
 436:Drivers/STM32F3xx_HAL_Driver/Src/stm32f3xx_hal_rtc_ex.c ****   /* Disable tamper global interrupt in case it is enabled */
 437:Drivers/STM32F3xx_HAL_Driver/Src/stm32f3xx_hal_rtc_ex.c ****   tmpreg &= (uint32_t)~RTC_TAFCR_TAMPIE;
 610              		.loc 1 437 3 is_stmt 1 view .LVU213
 611              		.loc 1 437 10 is_stmt 0 view .LVU214
 612 003e 23F00403 		bic	r3, r3, #4
 613              	.LVL49:
 438:Drivers/STM32F3xx_HAL_Driver/Src/stm32f3xx_hal_rtc_ex.c **** 
 439:Drivers/STM32F3xx_HAL_Driver/Src/stm32f3xx_hal_rtc_ex.c ****   /* Copy desired configuration into configuration register */
 440:Drivers/STM32F3xx_HAL_Driver/Src/stm32f3xx_hal_rtc_ex.c ****   hrtc->Instance->TAFCR = tmpreg;
 614              		.loc 1 440 3 is_stmt 1 view .LVU215
 615              		.loc 1 440 25 is_stmt 0 view .LVU216
 616 0042 2B64     		str	r3, [r5, #64]
 441:Drivers/STM32F3xx_HAL_Driver/Src/stm32f3xx_hal_rtc_ex.c **** 
 442:Drivers/STM32F3xx_HAL_Driver/Src/stm32f3xx_hal_rtc_ex.c ****   hrtc->State = HAL_RTC_STATE_READY;
 617              		.loc 1 442 3 is_stmt 1 view .LVU217
 618              		.loc 1 442 15 is_stmt 0 view .LVU218
 619 0044 0123     		movs	r3, #1
 620              	.LVL50:
 621              		.loc 1 442 15 view .LVU219
ARM GAS  /tmp/ccpBOonR.s 			page 20


 622 0046 4377     		strb	r3, [r0, #29]
 623              	.LVL51:
 443:Drivers/STM32F3xx_HAL_Driver/Src/stm32f3xx_hal_rtc_ex.c **** 
 444:Drivers/STM32F3xx_HAL_Driver/Src/stm32f3xx_hal_rtc_ex.c ****   /* Process Unlocked */
 445:Drivers/STM32F3xx_HAL_Driver/Src/stm32f3xx_hal_rtc_ex.c ****   __HAL_UNLOCK(hrtc);
 624              		.loc 1 445 3 is_stmt 1 view .LVU220
 625              		.loc 1 445 3 view .LVU221
 626 0048 0023     		movs	r3, #0
 627 004a 0377     		strb	r3, [r0, #28]
 446:Drivers/STM32F3xx_HAL_Driver/Src/stm32f3xx_hal_rtc_ex.c **** 
 447:Drivers/STM32F3xx_HAL_Driver/Src/stm32f3xx_hal_rtc_ex.c ****   return HAL_OK;
 628              		.loc 1 447 3 view .LVU222
 629              		.loc 1 447 10 is_stmt 0 view .LVU223
 630 004c 1846     		mov	r0, r3
 631              	.LVL52:
 448:Drivers/STM32F3xx_HAL_Driver/Src/stm32f3xx_hal_rtc_ex.c **** }
 632              		.loc 1 448 1 view .LVU224
 633 004e 30BC     		pop	{r4, r5}
 634              	.LCFI6:
 635              		.cfi_remember_state
 636              		.cfi_restore 5
 637              		.cfi_restore 4
 638              		.cfi_def_cfa_offset 0
 639 0050 7047     		bx	lr
 640              	.LVL53:
 641              	.L33:
 642              	.LCFI7:
 643              		.cfi_restore_state
 414:Drivers/STM32F3xx_HAL_Driver/Src/stm32f3xx_hal_rtc_ex.c ****   }
 644              		.loc 1 414 5 is_stmt 1 view .LVU225
 414:Drivers/STM32F3xx_HAL_Driver/Src/stm32f3xx_hal_rtc_ex.c ****   }
 645              		.loc 1 414 12 is_stmt 0 view .LVU226
 646 0052 43EA4203 		orr	r3, r3, r2, lsl #1
 647              	.LVL54:
 414:Drivers/STM32F3xx_HAL_Driver/Src/stm32f3xx_hal_rtc_ex.c ****   }
 648              		.loc 1 414 12 view .LVU227
 649 0056 E4E7     		b	.L27
 650              	.LVL55:
 651              	.L28:
 652              	.LCFI8:
 653              		.cfi_def_cfa_offset 0
 654              		.cfi_restore 4
 655              		.cfi_restore 5
 399:Drivers/STM32F3xx_HAL_Driver/Src/stm32f3xx_hal_rtc_ex.c **** 
 656              		.loc 1 399 3 view .LVU228
 657 0058 0220     		movs	r0, #2
 658              	.LVL56:
 659              		.loc 1 448 1 view .LVU229
 660 005a 7047     		bx	lr
 661              		.cfi_endproc
 662              	.LFE134:
 664              		.section	.text.HAL_RTCEx_SetTamper_IT,"ax",%progbits
 665              		.align	1
 666              		.global	HAL_RTCEx_SetTamper_IT
 667              		.syntax unified
 668              		.thumb
 669              		.thumb_func
ARM GAS  /tmp/ccpBOonR.s 			page 21


 670              		.fpu fpv4-sp-d16
 672              	HAL_RTCEx_SetTamper_IT:
 673              	.LVL57:
 674              	.LFB135:
 449:Drivers/STM32F3xx_HAL_Driver/Src/stm32f3xx_hal_rtc_ex.c **** 
 450:Drivers/STM32F3xx_HAL_Driver/Src/stm32f3xx_hal_rtc_ex.c **** /**
 451:Drivers/STM32F3xx_HAL_Driver/Src/stm32f3xx_hal_rtc_ex.c ****   * @brief  Sets Tamper with interrupt.
 452:Drivers/STM32F3xx_HAL_Driver/Src/stm32f3xx_hal_rtc_ex.c ****   * @note   By calling this API the tamper global interrupt will be enabled.
 453:Drivers/STM32F3xx_HAL_Driver/Src/stm32f3xx_hal_rtc_ex.c ****   * @param  hrtc pointer to a RTC_HandleTypeDef structure that contains
 454:Drivers/STM32F3xx_HAL_Driver/Src/stm32f3xx_hal_rtc_ex.c ****   *                the configuration information for RTC.
 455:Drivers/STM32F3xx_HAL_Driver/Src/stm32f3xx_hal_rtc_ex.c ****   * @param  sTamper Pointer to RTC Tamper.
 456:Drivers/STM32F3xx_HAL_Driver/Src/stm32f3xx_hal_rtc_ex.c ****   * @retval HAL status
 457:Drivers/STM32F3xx_HAL_Driver/Src/stm32f3xx_hal_rtc_ex.c ****   */
 458:Drivers/STM32F3xx_HAL_Driver/Src/stm32f3xx_hal_rtc_ex.c **** HAL_StatusTypeDef HAL_RTCEx_SetTamper_IT(RTC_HandleTypeDef *hrtc, RTC_TamperTypeDef *sTamper)
 459:Drivers/STM32F3xx_HAL_Driver/Src/stm32f3xx_hal_rtc_ex.c **** {
 675              		.loc 1 459 1 is_stmt 1 view -0
 676              		.cfi_startproc
 677              		@ args = 0, pretend = 0, frame = 0
 678              		@ frame_needed = 0, uses_anonymous_args = 0
 679              		@ link register save eliminated.
 460:Drivers/STM32F3xx_HAL_Driver/Src/stm32f3xx_hal_rtc_ex.c ****   uint32_t tmpreg = 0U;
 680              		.loc 1 460 3 view .LVU231
 461:Drivers/STM32F3xx_HAL_Driver/Src/stm32f3xx_hal_rtc_ex.c **** 
 462:Drivers/STM32F3xx_HAL_Driver/Src/stm32f3xx_hal_rtc_ex.c ****   /* Check the parameters */
 463:Drivers/STM32F3xx_HAL_Driver/Src/stm32f3xx_hal_rtc_ex.c ****   assert_param(IS_RTC_TAMPER(sTamper->Tamper));
 681              		.loc 1 463 3 view .LVU232
 464:Drivers/STM32F3xx_HAL_Driver/Src/stm32f3xx_hal_rtc_ex.c ****   assert_param(IS_RTC_TAMPER_TRIGGER(sTamper->Trigger));
 682              		.loc 1 464 3 view .LVU233
 465:Drivers/STM32F3xx_HAL_Driver/Src/stm32f3xx_hal_rtc_ex.c ****   assert_param(IS_RTC_TAMPER_FILTER(sTamper->Filter));
 683              		.loc 1 465 3 view .LVU234
 466:Drivers/STM32F3xx_HAL_Driver/Src/stm32f3xx_hal_rtc_ex.c ****   assert_param(IS_RTC_TAMPER_FILTER_CONFIG_CORRECT(sTamper->Filter, sTamper->Trigger));
 684              		.loc 1 466 3 view .LVU235
 467:Drivers/STM32F3xx_HAL_Driver/Src/stm32f3xx_hal_rtc_ex.c ****   assert_param(IS_RTC_TAMPER_SAMPLING_FREQ(sTamper->SamplingFrequency));
 685              		.loc 1 467 3 view .LVU236
 468:Drivers/STM32F3xx_HAL_Driver/Src/stm32f3xx_hal_rtc_ex.c ****   assert_param(IS_RTC_TAMPER_PRECHARGE_DURATION(sTamper->PrechargeDuration));
 686              		.loc 1 468 3 view .LVU237
 469:Drivers/STM32F3xx_HAL_Driver/Src/stm32f3xx_hal_rtc_ex.c ****   assert_param(IS_RTC_TAMPER_PULLUP_STATE(sTamper->TamperPullUp));
 687              		.loc 1 469 3 view .LVU238
 470:Drivers/STM32F3xx_HAL_Driver/Src/stm32f3xx_hal_rtc_ex.c ****   assert_param(IS_RTC_TAMPER_TIMESTAMPONTAMPER_DETECTION(sTamper->TimeStampOnTamperDetection));
 688              		.loc 1 470 3 view .LVU239
 471:Drivers/STM32F3xx_HAL_Driver/Src/stm32f3xx_hal_rtc_ex.c **** 
 472:Drivers/STM32F3xx_HAL_Driver/Src/stm32f3xx_hal_rtc_ex.c ****   /* Process Locked */
 473:Drivers/STM32F3xx_HAL_Driver/Src/stm32f3xx_hal_rtc_ex.c ****   __HAL_LOCK(hrtc);
 689              		.loc 1 473 3 view .LVU240
 690              		.loc 1 473 3 view .LVU241
 691 0000 037F     		ldrb	r3, [r0, #28]	@ zero_extendqisi2
 692 0002 012B     		cmp	r3, #1
 693 0004 31D0     		beq	.L38
 459:Drivers/STM32F3xx_HAL_Driver/Src/stm32f3xx_hal_rtc_ex.c ****   uint32_t tmpreg = 0U;
 694              		.loc 1 459 1 is_stmt 0 discriminator 2 view .LVU242
 695 0006 30B4     		push	{r4, r5}
 696              	.LCFI9:
 697              		.cfi_def_cfa_offset 8
 698              		.cfi_offset 4, -8
 699              		.cfi_offset 5, -4
 700              		.loc 1 473 3 is_stmt 1 discriminator 2 view .LVU243
 701 0008 0123     		movs	r3, #1
ARM GAS  /tmp/ccpBOonR.s 			page 22


 702 000a 0377     		strb	r3, [r0, #28]
 474:Drivers/STM32F3xx_HAL_Driver/Src/stm32f3xx_hal_rtc_ex.c **** 
 475:Drivers/STM32F3xx_HAL_Driver/Src/stm32f3xx_hal_rtc_ex.c ****   hrtc->State = HAL_RTC_STATE_BUSY;
 703              		.loc 1 475 3 discriminator 2 view .LVU244
 704              		.loc 1 475 15 is_stmt 0 discriminator 2 view .LVU245
 705 000c 0223     		movs	r3, #2
 706 000e 4377     		strb	r3, [r0, #29]
 476:Drivers/STM32F3xx_HAL_Driver/Src/stm32f3xx_hal_rtc_ex.c **** 
 477:Drivers/STM32F3xx_HAL_Driver/Src/stm32f3xx_hal_rtc_ex.c ****   /* Copy control register into temporary variable */
 478:Drivers/STM32F3xx_HAL_Driver/Src/stm32f3xx_hal_rtc_ex.c ****   tmpreg = hrtc->Instance->TAFCR;
 707              		.loc 1 478 3 is_stmt 1 discriminator 2 view .LVU246
 708              		.loc 1 478 16 is_stmt 0 discriminator 2 view .LVU247
 709 0010 0568     		ldr	r5, [r0]
 710              		.loc 1 478 10 discriminator 2 view .LVU248
 711 0012 2B6C     		ldr	r3, [r5, #64]
 712              	.LVL58:
 479:Drivers/STM32F3xx_HAL_Driver/Src/stm32f3xx_hal_rtc_ex.c **** 
 480:Drivers/STM32F3xx_HAL_Driver/Src/stm32f3xx_hal_rtc_ex.c ****   /* Enable selected tamper */
 481:Drivers/STM32F3xx_HAL_Driver/Src/stm32f3xx_hal_rtc_ex.c ****   tmpreg |= (sTamper->Tamper);
 713              		.loc 1 481 3 is_stmt 1 discriminator 2 view .LVU249
 714              		.loc 1 481 21 is_stmt 0 discriminator 2 view .LVU250
 715 0014 0A68     		ldr	r2, [r1]
 716              		.loc 1 481 10 discriminator 2 view .LVU251
 717 0016 1343     		orrs	r3, r3, r2
 718              	.LVL59:
 482:Drivers/STM32F3xx_HAL_Driver/Src/stm32f3xx_hal_rtc_ex.c **** 
 483:Drivers/STM32F3xx_HAL_Driver/Src/stm32f3xx_hal_rtc_ex.c ****   /* Configure the tamper trigger bit (this bit is just on the right of the
 484:Drivers/STM32F3xx_HAL_Driver/Src/stm32f3xx_hal_rtc_ex.c ****        tamper enable bit, hence the one-time right shift before updating it) */
 485:Drivers/STM32F3xx_HAL_Driver/Src/stm32f3xx_hal_rtc_ex.c ****   if (sTamper->Trigger == RTC_TAMPERTRIGGER_FALLINGEDGE)
 719              		.loc 1 485 3 is_stmt 1 discriminator 2 view .LVU252
 720              		.loc 1 485 14 is_stmt 0 discriminator 2 view .LVU253
 721 0018 4C68     		ldr	r4, [r1, #4]
 722              		.loc 1 485 6 discriminator 2 view .LVU254
 723 001a 022C     		cmp	r4, #2
 724 001c 22D0     		beq	.L43
 486:Drivers/STM32F3xx_HAL_Driver/Src/stm32f3xx_hal_rtc_ex.c ****   {
 487:Drivers/STM32F3xx_HAL_Driver/Src/stm32f3xx_hal_rtc_ex.c ****     /* Set the tamper trigger bit (case of falling edge or high level) */
 488:Drivers/STM32F3xx_HAL_Driver/Src/stm32f3xx_hal_rtc_ex.c ****     tmpreg |= (uint32_t)(sTamper->Tamper << 1U);
 489:Drivers/STM32F3xx_HAL_Driver/Src/stm32f3xx_hal_rtc_ex.c ****   }
 490:Drivers/STM32F3xx_HAL_Driver/Src/stm32f3xx_hal_rtc_ex.c ****   else
 491:Drivers/STM32F3xx_HAL_Driver/Src/stm32f3xx_hal_rtc_ex.c ****   {
 492:Drivers/STM32F3xx_HAL_Driver/Src/stm32f3xx_hal_rtc_ex.c ****     /* Clear the tamper trigger bit (case of rising edge or low level) */
 493:Drivers/STM32F3xx_HAL_Driver/Src/stm32f3xx_hal_rtc_ex.c ****     tmpreg &= (uint32_t)~(sTamper->Tamper << 1U);
 725              		.loc 1 493 5 is_stmt 1 view .LVU255
 726              		.loc 1 493 12 is_stmt 0 view .LVU256
 727 001e 23EA4203 		bic	r3, r3, r2, lsl #1
 728              	.LVL60:
 729              	.L37:
 494:Drivers/STM32F3xx_HAL_Driver/Src/stm32f3xx_hal_rtc_ex.c ****   }
 495:Drivers/STM32F3xx_HAL_Driver/Src/stm32f3xx_hal_rtc_ex.c **** 
 496:Drivers/STM32F3xx_HAL_Driver/Src/stm32f3xx_hal_rtc_ex.c ****   /* Clear remaining fields before setting them */
 497:Drivers/STM32F3xx_HAL_Driver/Src/stm32f3xx_hal_rtc_ex.c ****   tmpreg &= ~(RTC_TAMPERFILTER_MASK              | \
 730              		.loc 1 497 3 is_stmt 1 view .LVU257
 731              		.loc 1 497 10 is_stmt 0 view .LVU258
 732 0022 23F47F42 		bic	r2, r3, #65280
 733 0026 22F08002 		bic	r2, r2, #128
 734              	.LVL61:
ARM GAS  /tmp/ccpBOonR.s 			page 23


 498:Drivers/STM32F3xx_HAL_Driver/Src/stm32f3xx_hal_rtc_ex.c ****               RTC_TAMPERSAMPLINGFREQ_RTCCLK_MASK | \
 499:Drivers/STM32F3xx_HAL_Driver/Src/stm32f3xx_hal_rtc_ex.c ****               RTC_TAMPERPRECHARGEDURATION_MASK   | \
 500:Drivers/STM32F3xx_HAL_Driver/Src/stm32f3xx_hal_rtc_ex.c ****               RTC_TAMPER_PULLUP_MASK             | \
 501:Drivers/STM32F3xx_HAL_Driver/Src/stm32f3xx_hal_rtc_ex.c ****               RTC_TIMESTAMPONTAMPERDETECTION_MASK);
 502:Drivers/STM32F3xx_HAL_Driver/Src/stm32f3xx_hal_rtc_ex.c **** 
 503:Drivers/STM32F3xx_HAL_Driver/Src/stm32f3xx_hal_rtc_ex.c ****   /* Set remaining parameters of desired configuration into temporary variable */
 504:Drivers/STM32F3xx_HAL_Driver/Src/stm32f3xx_hal_rtc_ex.c ****   tmpreg |= ((uint32_t)sTamper->Filter            | \
 735              		.loc 1 504 3 is_stmt 1 view .LVU259
 736              		.loc 1 504 31 is_stmt 0 view .LVU260
 737 002a 8B68     		ldr	r3, [r1, #8]
 505:Drivers/STM32F3xx_HAL_Driver/Src/stm32f3xx_hal_rtc_ex.c ****              (uint32_t)sTamper->SamplingFrequency | \
 738              		.loc 1 505 31 view .LVU261
 739 002c CC68     		ldr	r4, [r1, #12]
 504:Drivers/STM32F3xx_HAL_Driver/Src/stm32f3xx_hal_rtc_ex.c ****              (uint32_t)sTamper->SamplingFrequency | \
 740              		.loc 1 504 51 view .LVU262
 741 002e 2343     		orrs	r3, r3, r4
 506:Drivers/STM32F3xx_HAL_Driver/Src/stm32f3xx_hal_rtc_ex.c ****              (uint32_t)sTamper->PrechargeDuration | \
 742              		.loc 1 506 31 view .LVU263
 743 0030 0C69     		ldr	r4, [r1, #16]
 505:Drivers/STM32F3xx_HAL_Driver/Src/stm32f3xx_hal_rtc_ex.c ****              (uint32_t)sTamper->SamplingFrequency | \
 744              		.loc 1 505 51 view .LVU264
 745 0032 2343     		orrs	r3, r3, r4
 507:Drivers/STM32F3xx_HAL_Driver/Src/stm32f3xx_hal_rtc_ex.c ****              (uint32_t)sTamper->TamperPullUp      | \
 746              		.loc 1 507 31 view .LVU265
 747 0034 4C69     		ldr	r4, [r1, #20]
 506:Drivers/STM32F3xx_HAL_Driver/Src/stm32f3xx_hal_rtc_ex.c ****              (uint32_t)sTamper->PrechargeDuration | \
 748              		.loc 1 506 51 view .LVU266
 749 0036 2343     		orrs	r3, r3, r4
 508:Drivers/STM32F3xx_HAL_Driver/Src/stm32f3xx_hal_rtc_ex.c ****              (uint32_t)sTamper->TimeStampOnTamperDetection);
 750              		.loc 1 508 31 view .LVU267
 751 0038 8969     		ldr	r1, [r1, #24]
 752              	.LVL62:
 507:Drivers/STM32F3xx_HAL_Driver/Src/stm32f3xx_hal_rtc_ex.c ****              (uint32_t)sTamper->TamperPullUp      | \
 753              		.loc 1 507 51 view .LVU268
 754 003a 0B43     		orrs	r3, r3, r1
 504:Drivers/STM32F3xx_HAL_Driver/Src/stm32f3xx_hal_rtc_ex.c ****              (uint32_t)sTamper->SamplingFrequency | \
 755              		.loc 1 504 10 view .LVU269
 756 003c 1343     		orrs	r3, r3, r2
 757              	.LVL63:
 509:Drivers/STM32F3xx_HAL_Driver/Src/stm32f3xx_hal_rtc_ex.c **** 
 510:Drivers/STM32F3xx_HAL_Driver/Src/stm32f3xx_hal_rtc_ex.c ****   /* Enable global tamper interrupt */
 511:Drivers/STM32F3xx_HAL_Driver/Src/stm32f3xx_hal_rtc_ex.c ****   tmpreg |= (uint32_t)RTC_TAFCR_TAMPIE;
 758              		.loc 1 511 3 is_stmt 1 view .LVU270
 759              		.loc 1 511 10 is_stmt 0 view .LVU271
 760 003e 43F00403 		orr	r3, r3, #4
 761              	.LVL64:
 512:Drivers/STM32F3xx_HAL_Driver/Src/stm32f3xx_hal_rtc_ex.c **** 
 513:Drivers/STM32F3xx_HAL_Driver/Src/stm32f3xx_hal_rtc_ex.c ****   /* Copy desired configuration into configuration register */
 514:Drivers/STM32F3xx_HAL_Driver/Src/stm32f3xx_hal_rtc_ex.c ****   hrtc->Instance->TAFCR = tmpreg;
 762              		.loc 1 514 3 is_stmt 1 view .LVU272
 763              		.loc 1 514 25 is_stmt 0 view .LVU273
 764 0042 2B64     		str	r3, [r5, #64]
 515:Drivers/STM32F3xx_HAL_Driver/Src/stm32f3xx_hal_rtc_ex.c **** 
 516:Drivers/STM32F3xx_HAL_Driver/Src/stm32f3xx_hal_rtc_ex.c ****   /* RTC Tamper Interrupt Configuration: EXTI configuration */
 517:Drivers/STM32F3xx_HAL_Driver/Src/stm32f3xx_hal_rtc_ex.c ****   __HAL_RTC_TAMPER_TIMESTAMP_EXTI_ENABLE_IT();
 765              		.loc 1 517 3 is_stmt 1 view .LVU274
 766 0044 0A4B     		ldr	r3, .L44
ARM GAS  /tmp/ccpBOonR.s 			page 24


 767              	.LVL65:
 768              		.loc 1 517 3 is_stmt 0 view .LVU275
 769 0046 1A68     		ldr	r2, [r3]
 770 0048 42F40022 		orr	r2, r2, #524288
 771 004c 1A60     		str	r2, [r3]
 772              	.LVL66:
 518:Drivers/STM32F3xx_HAL_Driver/Src/stm32f3xx_hal_rtc_ex.c ****   __HAL_RTC_TAMPER_TIMESTAMP_EXTI_ENABLE_RISING_EDGE();
 773              		.loc 1 518 3 is_stmt 1 view .LVU276
 774 004e 9A68     		ldr	r2, [r3, #8]
 775 0050 42F40022 		orr	r2, r2, #524288
 776 0054 9A60     		str	r2, [r3, #8]
 519:Drivers/STM32F3xx_HAL_Driver/Src/stm32f3xx_hal_rtc_ex.c **** 
 520:Drivers/STM32F3xx_HAL_Driver/Src/stm32f3xx_hal_rtc_ex.c ****   hrtc->State = HAL_RTC_STATE_READY;
 777              		.loc 1 520 3 view .LVU277
 778              		.loc 1 520 15 is_stmt 0 view .LVU278
 779 0056 0123     		movs	r3, #1
 780 0058 4377     		strb	r3, [r0, #29]
 521:Drivers/STM32F3xx_HAL_Driver/Src/stm32f3xx_hal_rtc_ex.c **** 
 522:Drivers/STM32F3xx_HAL_Driver/Src/stm32f3xx_hal_rtc_ex.c ****   /* Process Unlocked */
 523:Drivers/STM32F3xx_HAL_Driver/Src/stm32f3xx_hal_rtc_ex.c ****   __HAL_UNLOCK(hrtc);
 781              		.loc 1 523 3 is_stmt 1 view .LVU279
 782              		.loc 1 523 3 view .LVU280
 783 005a 0023     		movs	r3, #0
 784 005c 0377     		strb	r3, [r0, #28]
 524:Drivers/STM32F3xx_HAL_Driver/Src/stm32f3xx_hal_rtc_ex.c **** 
 525:Drivers/STM32F3xx_HAL_Driver/Src/stm32f3xx_hal_rtc_ex.c ****   return HAL_OK;
 785              		.loc 1 525 3 view .LVU281
 786              		.loc 1 525 10 is_stmt 0 view .LVU282
 787 005e 1846     		mov	r0, r3
 788              	.LVL67:
 526:Drivers/STM32F3xx_HAL_Driver/Src/stm32f3xx_hal_rtc_ex.c **** }
 789              		.loc 1 526 1 view .LVU283
 790 0060 30BC     		pop	{r4, r5}
 791              	.LCFI10:
 792              		.cfi_remember_state
 793              		.cfi_restore 5
 794              		.cfi_restore 4
 795              		.cfi_def_cfa_offset 0
 796 0062 7047     		bx	lr
 797              	.LVL68:
 798              	.L43:
 799              	.LCFI11:
 800              		.cfi_restore_state
 488:Drivers/STM32F3xx_HAL_Driver/Src/stm32f3xx_hal_rtc_ex.c ****   }
 801              		.loc 1 488 5 is_stmt 1 view .LVU284
 488:Drivers/STM32F3xx_HAL_Driver/Src/stm32f3xx_hal_rtc_ex.c ****   }
 802              		.loc 1 488 12 is_stmt 0 view .LVU285
 803 0064 43EA4203 		orr	r3, r3, r2, lsl #1
 804              	.LVL69:
 488:Drivers/STM32F3xx_HAL_Driver/Src/stm32f3xx_hal_rtc_ex.c ****   }
 805              		.loc 1 488 12 view .LVU286
 806 0068 DBE7     		b	.L37
 807              	.LVL70:
 808              	.L38:
 809              	.LCFI12:
 810              		.cfi_def_cfa_offset 0
 811              		.cfi_restore 4
ARM GAS  /tmp/ccpBOonR.s 			page 25


 812              		.cfi_restore 5
 473:Drivers/STM32F3xx_HAL_Driver/Src/stm32f3xx_hal_rtc_ex.c **** 
 813              		.loc 1 473 3 view .LVU287
 814 006a 0220     		movs	r0, #2
 815              	.LVL71:
 816              		.loc 1 526 1 view .LVU288
 817 006c 7047     		bx	lr
 818              	.L45:
 819 006e 00BF     		.align	2
 820              	.L44:
 821 0070 00040140 		.word	1073808384
 822              		.cfi_endproc
 823              	.LFE135:
 825              		.section	.text.HAL_RTCEx_DeactivateTamper,"ax",%progbits
 826              		.align	1
 827              		.global	HAL_RTCEx_DeactivateTamper
 828              		.syntax unified
 829              		.thumb
 830              		.thumb_func
 831              		.fpu fpv4-sp-d16
 833              	HAL_RTCEx_DeactivateTamper:
 834              	.LVL72:
 835              	.LFB136:
 527:Drivers/STM32F3xx_HAL_Driver/Src/stm32f3xx_hal_rtc_ex.c **** 
 528:Drivers/STM32F3xx_HAL_Driver/Src/stm32f3xx_hal_rtc_ex.c **** /**
 529:Drivers/STM32F3xx_HAL_Driver/Src/stm32f3xx_hal_rtc_ex.c ****   * @brief  Deactivates Tamper.
 530:Drivers/STM32F3xx_HAL_Driver/Src/stm32f3xx_hal_rtc_ex.c ****   * @note   The tamper global interrupt bit will remain unchanged.
 531:Drivers/STM32F3xx_HAL_Driver/Src/stm32f3xx_hal_rtc_ex.c ****   * @param  hrtc pointer to a RTC_HandleTypeDef structure that contains
 532:Drivers/STM32F3xx_HAL_Driver/Src/stm32f3xx_hal_rtc_ex.c ****   *                the configuration information for RTC.
 533:Drivers/STM32F3xx_HAL_Driver/Src/stm32f3xx_hal_rtc_ex.c ****   * @param  Tamper Selected tamper pin.
 534:Drivers/STM32F3xx_HAL_Driver/Src/stm32f3xx_hal_rtc_ex.c ****   *          This parameter can be any combination of the following values:
 535:Drivers/STM32F3xx_HAL_Driver/Src/stm32f3xx_hal_rtc_ex.c ****   *            @arg RTC_TAMPER_1:  Tamper 1
 536:Drivers/STM32F3xx_HAL_Driver/Src/stm32f3xx_hal_rtc_ex.c ****   *            @arg RTC_TAMPER_2:  Tamper 2
 537:Drivers/STM32F3xx_HAL_Driver/Src/stm32f3xx_hal_rtc_ex.c ****   *            @arg RTC_TAMPER_3:  Tamper 3
 538:Drivers/STM32F3xx_HAL_Driver/Src/stm32f3xx_hal_rtc_ex.c ****   * @note   RTC_TAMPER_3 is not applicable to all devices.
 539:Drivers/STM32F3xx_HAL_Driver/Src/stm32f3xx_hal_rtc_ex.c ****   * @retval HAL status
 540:Drivers/STM32F3xx_HAL_Driver/Src/stm32f3xx_hal_rtc_ex.c ****   */
 541:Drivers/STM32F3xx_HAL_Driver/Src/stm32f3xx_hal_rtc_ex.c **** HAL_StatusTypeDef HAL_RTCEx_DeactivateTamper(RTC_HandleTypeDef *hrtc, uint32_t Tamper)
 542:Drivers/STM32F3xx_HAL_Driver/Src/stm32f3xx_hal_rtc_ex.c **** {
 836              		.loc 1 542 1 is_stmt 1 view -0
 837              		.cfi_startproc
 838              		@ args = 0, pretend = 0, frame = 0
 839              		@ frame_needed = 0, uses_anonymous_args = 0
 840              		@ link register save eliminated.
 543:Drivers/STM32F3xx_HAL_Driver/Src/stm32f3xx_hal_rtc_ex.c ****   assert_param(IS_RTC_TAMPER(Tamper));
 841              		.loc 1 543 3 view .LVU290
 544:Drivers/STM32F3xx_HAL_Driver/Src/stm32f3xx_hal_rtc_ex.c **** 
 545:Drivers/STM32F3xx_HAL_Driver/Src/stm32f3xx_hal_rtc_ex.c ****   /* Process Locked */
 546:Drivers/STM32F3xx_HAL_Driver/Src/stm32f3xx_hal_rtc_ex.c ****   __HAL_LOCK(hrtc);
 842              		.loc 1 546 3 view .LVU291
 843              		.loc 1 546 3 view .LVU292
 844 0000 027F     		ldrb	r2, [r0, #28]	@ zero_extendqisi2
 845 0002 012A     		cmp	r2, #1
 846 0004 10D0     		beq	.L48
 542:Drivers/STM32F3xx_HAL_Driver/Src/stm32f3xx_hal_rtc_ex.c ****   assert_param(IS_RTC_TAMPER(Tamper));
 847              		.loc 1 542 1 is_stmt 0 discriminator 2 view .LVU293
 848 0006 10B4     		push	{r4}
ARM GAS  /tmp/ccpBOonR.s 			page 26


 849              	.LCFI13:
 850              		.cfi_def_cfa_offset 4
 851              		.cfi_offset 4, -4
 852              		.loc 1 546 3 is_stmt 1 discriminator 2 view .LVU294
 853 0008 0122     		movs	r2, #1
 854 000a 0277     		strb	r2, [r0, #28]
 547:Drivers/STM32F3xx_HAL_Driver/Src/stm32f3xx_hal_rtc_ex.c **** 
 548:Drivers/STM32F3xx_HAL_Driver/Src/stm32f3xx_hal_rtc_ex.c ****   hrtc->State = HAL_RTC_STATE_BUSY;
 855              		.loc 1 548 3 discriminator 2 view .LVU295
 856              		.loc 1 548 15 is_stmt 0 discriminator 2 view .LVU296
 857 000c 0223     		movs	r3, #2
 858 000e 4377     		strb	r3, [r0, #29]
 549:Drivers/STM32F3xx_HAL_Driver/Src/stm32f3xx_hal_rtc_ex.c **** 
 550:Drivers/STM32F3xx_HAL_Driver/Src/stm32f3xx_hal_rtc_ex.c ****   /* Disable the selected Tamper pin */
 551:Drivers/STM32F3xx_HAL_Driver/Src/stm32f3xx_hal_rtc_ex.c ****   hrtc->Instance->TAFCR &= (uint32_t)~Tamper;
 859              		.loc 1 551 3 is_stmt 1 discriminator 2 view .LVU297
 860              		.loc 1 551 7 is_stmt 0 discriminator 2 view .LVU298
 861 0010 0468     		ldr	r4, [r0]
 862              		.loc 1 551 25 discriminator 2 view .LVU299
 863 0012 236C     		ldr	r3, [r4, #64]
 864 0014 23EA0103 		bic	r3, r3, r1
 865 0018 2364     		str	r3, [r4, #64]
 552:Drivers/STM32F3xx_HAL_Driver/Src/stm32f3xx_hal_rtc_ex.c **** 
 553:Drivers/STM32F3xx_HAL_Driver/Src/stm32f3xx_hal_rtc_ex.c ****   hrtc->State = HAL_RTC_STATE_READY;
 866              		.loc 1 553 3 is_stmt 1 discriminator 2 view .LVU300
 867              		.loc 1 553 15 is_stmt 0 discriminator 2 view .LVU301
 868 001a 4277     		strb	r2, [r0, #29]
 554:Drivers/STM32F3xx_HAL_Driver/Src/stm32f3xx_hal_rtc_ex.c **** 
 555:Drivers/STM32F3xx_HAL_Driver/Src/stm32f3xx_hal_rtc_ex.c ****   /* Process Unlocked */
 556:Drivers/STM32F3xx_HAL_Driver/Src/stm32f3xx_hal_rtc_ex.c ****   __HAL_UNLOCK(hrtc);
 869              		.loc 1 556 3 is_stmt 1 discriminator 2 view .LVU302
 870              		.loc 1 556 3 discriminator 2 view .LVU303
 871 001c 0023     		movs	r3, #0
 872 001e 0377     		strb	r3, [r0, #28]
 557:Drivers/STM32F3xx_HAL_Driver/Src/stm32f3xx_hal_rtc_ex.c **** 
 558:Drivers/STM32F3xx_HAL_Driver/Src/stm32f3xx_hal_rtc_ex.c ****   return HAL_OK;
 873              		.loc 1 558 3 discriminator 2 view .LVU304
 874              		.loc 1 558 10 is_stmt 0 discriminator 2 view .LVU305
 875 0020 1846     		mov	r0, r3
 876              	.LVL73:
 559:Drivers/STM32F3xx_HAL_Driver/Src/stm32f3xx_hal_rtc_ex.c **** }
 877              		.loc 1 559 1 discriminator 2 view .LVU306
 878 0022 5DF8044B 		ldr	r4, [sp], #4
 879              	.LCFI14:
 880              		.cfi_restore 4
 881              		.cfi_def_cfa_offset 0
 882 0026 7047     		bx	lr
 883              	.LVL74:
 884              	.L48:
 546:Drivers/STM32F3xx_HAL_Driver/Src/stm32f3xx_hal_rtc_ex.c **** 
 885              		.loc 1 546 3 view .LVU307
 886 0028 0220     		movs	r0, #2
 887              	.LVL75:
 888              		.loc 1 559 1 view .LVU308
 889 002a 7047     		bx	lr
 890              		.cfi_endproc
 891              	.LFE136:
ARM GAS  /tmp/ccpBOonR.s 			page 27


 893              		.section	.text.HAL_RTCEx_TimeStampEventCallback,"ax",%progbits
 894              		.align	1
 895              		.weak	HAL_RTCEx_TimeStampEventCallback
 896              		.syntax unified
 897              		.thumb
 898              		.thumb_func
 899              		.fpu fpv4-sp-d16
 901              	HAL_RTCEx_TimeStampEventCallback:
 902              	.LVL76:
 903              	.LFB138:
 560:Drivers/STM32F3xx_HAL_Driver/Src/stm32f3xx_hal_rtc_ex.c **** 
 561:Drivers/STM32F3xx_HAL_Driver/Src/stm32f3xx_hal_rtc_ex.c **** /**
 562:Drivers/STM32F3xx_HAL_Driver/Src/stm32f3xx_hal_rtc_ex.c ****   * @brief  Handles Timestamp and Tamper interrupt request.
 563:Drivers/STM32F3xx_HAL_Driver/Src/stm32f3xx_hal_rtc_ex.c ****   * @param  hrtc pointer to a RTC_HandleTypeDef structure that contains
 564:Drivers/STM32F3xx_HAL_Driver/Src/stm32f3xx_hal_rtc_ex.c ****   *                the configuration information for RTC.
 565:Drivers/STM32F3xx_HAL_Driver/Src/stm32f3xx_hal_rtc_ex.c ****   * @retval None
 566:Drivers/STM32F3xx_HAL_Driver/Src/stm32f3xx_hal_rtc_ex.c ****   */
 567:Drivers/STM32F3xx_HAL_Driver/Src/stm32f3xx_hal_rtc_ex.c **** void HAL_RTCEx_TamperTimeStampIRQHandler(RTC_HandleTypeDef *hrtc)
 568:Drivers/STM32F3xx_HAL_Driver/Src/stm32f3xx_hal_rtc_ex.c **** {
 569:Drivers/STM32F3xx_HAL_Driver/Src/stm32f3xx_hal_rtc_ex.c ****   /* Clear the EXTI's Flag for RTC Timestamp and Tamper */
 570:Drivers/STM32F3xx_HAL_Driver/Src/stm32f3xx_hal_rtc_ex.c ****   __HAL_RTC_TAMPER_TIMESTAMP_EXTI_CLEAR_FLAG();
 571:Drivers/STM32F3xx_HAL_Driver/Src/stm32f3xx_hal_rtc_ex.c **** 
 572:Drivers/STM32F3xx_HAL_Driver/Src/stm32f3xx_hal_rtc_ex.c ****   /* Get the Timestamp interrupt source enable status */
 573:Drivers/STM32F3xx_HAL_Driver/Src/stm32f3xx_hal_rtc_ex.c ****   if (__HAL_RTC_TIMESTAMP_GET_IT_SOURCE(hrtc, RTC_IT_TS) != 0U)
 574:Drivers/STM32F3xx_HAL_Driver/Src/stm32f3xx_hal_rtc_ex.c ****   {
 575:Drivers/STM32F3xx_HAL_Driver/Src/stm32f3xx_hal_rtc_ex.c ****     /* Get the pending status of the Timestamp Interrupt */
 576:Drivers/STM32F3xx_HAL_Driver/Src/stm32f3xx_hal_rtc_ex.c ****     if (__HAL_RTC_TIMESTAMP_GET_FLAG(hrtc, RTC_FLAG_TSF) != 0U)
 577:Drivers/STM32F3xx_HAL_Driver/Src/stm32f3xx_hal_rtc_ex.c ****     {
 578:Drivers/STM32F3xx_HAL_Driver/Src/stm32f3xx_hal_rtc_ex.c ****       /* Timestamp callback */
 579:Drivers/STM32F3xx_HAL_Driver/Src/stm32f3xx_hal_rtc_ex.c **** #if (USE_HAL_RTC_REGISTER_CALLBACKS == 1)
 580:Drivers/STM32F3xx_HAL_Driver/Src/stm32f3xx_hal_rtc_ex.c ****       hrtc->TimeStampEventCallback(hrtc);
 581:Drivers/STM32F3xx_HAL_Driver/Src/stm32f3xx_hal_rtc_ex.c **** #else
 582:Drivers/STM32F3xx_HAL_Driver/Src/stm32f3xx_hal_rtc_ex.c ****       HAL_RTCEx_TimeStampEventCallback(hrtc);
 583:Drivers/STM32F3xx_HAL_Driver/Src/stm32f3xx_hal_rtc_ex.c **** #endif /* USE_HAL_RTC_REGISTER_CALLBACKS */
 584:Drivers/STM32F3xx_HAL_Driver/Src/stm32f3xx_hal_rtc_ex.c **** 
 585:Drivers/STM32F3xx_HAL_Driver/Src/stm32f3xx_hal_rtc_ex.c ****       /* Clear the Timestamp interrupt pending bit after returning from callback
 586:Drivers/STM32F3xx_HAL_Driver/Src/stm32f3xx_hal_rtc_ex.c ****          as RTC_TSTR and RTC_TSDR registers are cleared when TSF bit is reset */
 587:Drivers/STM32F3xx_HAL_Driver/Src/stm32f3xx_hal_rtc_ex.c ****       __HAL_RTC_TIMESTAMP_CLEAR_FLAG(hrtc, RTC_FLAG_TSF);
 588:Drivers/STM32F3xx_HAL_Driver/Src/stm32f3xx_hal_rtc_ex.c ****     }
 589:Drivers/STM32F3xx_HAL_Driver/Src/stm32f3xx_hal_rtc_ex.c ****   }
 590:Drivers/STM32F3xx_HAL_Driver/Src/stm32f3xx_hal_rtc_ex.c **** 
 591:Drivers/STM32F3xx_HAL_Driver/Src/stm32f3xx_hal_rtc_ex.c ****   /* Get the Tamper 1 interrupt source enable status */
 592:Drivers/STM32F3xx_HAL_Driver/Src/stm32f3xx_hal_rtc_ex.c ****   if (__HAL_RTC_TAMPER_GET_IT_SOURCE(hrtc, RTC_IT_TAMP) != 0U)
 593:Drivers/STM32F3xx_HAL_Driver/Src/stm32f3xx_hal_rtc_ex.c ****   {
 594:Drivers/STM32F3xx_HAL_Driver/Src/stm32f3xx_hal_rtc_ex.c ****     /* Get the pending status of the Tamper 1 Interrupt */
 595:Drivers/STM32F3xx_HAL_Driver/Src/stm32f3xx_hal_rtc_ex.c ****     if (__HAL_RTC_TAMPER_GET_FLAG(hrtc, RTC_FLAG_TAMP1F) != 0U)
 596:Drivers/STM32F3xx_HAL_Driver/Src/stm32f3xx_hal_rtc_ex.c ****     {
 597:Drivers/STM32F3xx_HAL_Driver/Src/stm32f3xx_hal_rtc_ex.c ****       /* Clear the Tamper interrupt pending bit */
 598:Drivers/STM32F3xx_HAL_Driver/Src/stm32f3xx_hal_rtc_ex.c ****       __HAL_RTC_TAMPER_CLEAR_FLAG(hrtc, RTC_FLAG_TAMP1F);
 599:Drivers/STM32F3xx_HAL_Driver/Src/stm32f3xx_hal_rtc_ex.c **** 
 600:Drivers/STM32F3xx_HAL_Driver/Src/stm32f3xx_hal_rtc_ex.c ****       /* Tamper callback */
 601:Drivers/STM32F3xx_HAL_Driver/Src/stm32f3xx_hal_rtc_ex.c **** #if (USE_HAL_RTC_REGISTER_CALLBACKS == 1)
 602:Drivers/STM32F3xx_HAL_Driver/Src/stm32f3xx_hal_rtc_ex.c ****       hrtc->Tamper1EventCallback(hrtc);
 603:Drivers/STM32F3xx_HAL_Driver/Src/stm32f3xx_hal_rtc_ex.c **** #else
 604:Drivers/STM32F3xx_HAL_Driver/Src/stm32f3xx_hal_rtc_ex.c ****       HAL_RTCEx_Tamper1EventCallback(hrtc);
 605:Drivers/STM32F3xx_HAL_Driver/Src/stm32f3xx_hal_rtc_ex.c **** #endif /* USE_HAL_RTC_REGISTER_CALLBACKS */
 606:Drivers/STM32F3xx_HAL_Driver/Src/stm32f3xx_hal_rtc_ex.c ****     }
ARM GAS  /tmp/ccpBOonR.s 			page 28


 607:Drivers/STM32F3xx_HAL_Driver/Src/stm32f3xx_hal_rtc_ex.c ****   }
 608:Drivers/STM32F3xx_HAL_Driver/Src/stm32f3xx_hal_rtc_ex.c **** 
 609:Drivers/STM32F3xx_HAL_Driver/Src/stm32f3xx_hal_rtc_ex.c ****   /* Get the Tamper 2 interrupt source enable status */
 610:Drivers/STM32F3xx_HAL_Driver/Src/stm32f3xx_hal_rtc_ex.c ****   if (__HAL_RTC_TAMPER_GET_IT_SOURCE(hrtc, RTC_IT_TAMP) != 0U)
 611:Drivers/STM32F3xx_HAL_Driver/Src/stm32f3xx_hal_rtc_ex.c ****   {
 612:Drivers/STM32F3xx_HAL_Driver/Src/stm32f3xx_hal_rtc_ex.c ****     /* Get the pending status of the Tamper 2 Interrupt */
 613:Drivers/STM32F3xx_HAL_Driver/Src/stm32f3xx_hal_rtc_ex.c ****     if (__HAL_RTC_TAMPER_GET_FLAG(hrtc, RTC_FLAG_TAMP2F) != 0U)
 614:Drivers/STM32F3xx_HAL_Driver/Src/stm32f3xx_hal_rtc_ex.c ****     {
 615:Drivers/STM32F3xx_HAL_Driver/Src/stm32f3xx_hal_rtc_ex.c ****       /* Clear the Tamper interrupt pending bit */
 616:Drivers/STM32F3xx_HAL_Driver/Src/stm32f3xx_hal_rtc_ex.c ****       __HAL_RTC_TAMPER_CLEAR_FLAG(hrtc, RTC_FLAG_TAMP2F);
 617:Drivers/STM32F3xx_HAL_Driver/Src/stm32f3xx_hal_rtc_ex.c **** 
 618:Drivers/STM32F3xx_HAL_Driver/Src/stm32f3xx_hal_rtc_ex.c ****       /* Tamper callback */
 619:Drivers/STM32F3xx_HAL_Driver/Src/stm32f3xx_hal_rtc_ex.c **** #if (USE_HAL_RTC_REGISTER_CALLBACKS == 1)
 620:Drivers/STM32F3xx_HAL_Driver/Src/stm32f3xx_hal_rtc_ex.c ****       hrtc->Tamper2EventCallback(hrtc);
 621:Drivers/STM32F3xx_HAL_Driver/Src/stm32f3xx_hal_rtc_ex.c **** #else
 622:Drivers/STM32F3xx_HAL_Driver/Src/stm32f3xx_hal_rtc_ex.c ****       HAL_RTCEx_Tamper2EventCallback(hrtc);
 623:Drivers/STM32F3xx_HAL_Driver/Src/stm32f3xx_hal_rtc_ex.c **** #endif /* USE_HAL_RTC_REGISTER_CALLBACKS */
 624:Drivers/STM32F3xx_HAL_Driver/Src/stm32f3xx_hal_rtc_ex.c ****     }
 625:Drivers/STM32F3xx_HAL_Driver/Src/stm32f3xx_hal_rtc_ex.c ****   }
 626:Drivers/STM32F3xx_HAL_Driver/Src/stm32f3xx_hal_rtc_ex.c **** 
 627:Drivers/STM32F3xx_HAL_Driver/Src/stm32f3xx_hal_rtc_ex.c **** #if defined(RTC_TAMPER3_SUPPORT)
 628:Drivers/STM32F3xx_HAL_Driver/Src/stm32f3xx_hal_rtc_ex.c ****   /* Get the Tamper 3 interrupt source enable status */
 629:Drivers/STM32F3xx_HAL_Driver/Src/stm32f3xx_hal_rtc_ex.c ****   if (__HAL_RTC_TAMPER_GET_IT_SOURCE(hrtc, RTC_IT_TAMP) != 0U)
 630:Drivers/STM32F3xx_HAL_Driver/Src/stm32f3xx_hal_rtc_ex.c ****   {
 631:Drivers/STM32F3xx_HAL_Driver/Src/stm32f3xx_hal_rtc_ex.c ****     /* Get the pending status of the Tamper 3 Interrupt */
 632:Drivers/STM32F3xx_HAL_Driver/Src/stm32f3xx_hal_rtc_ex.c ****     if (__HAL_RTC_TAMPER_GET_FLAG(hrtc, RTC_FLAG_TAMP3F) != 0U)
 633:Drivers/STM32F3xx_HAL_Driver/Src/stm32f3xx_hal_rtc_ex.c ****     {
 634:Drivers/STM32F3xx_HAL_Driver/Src/stm32f3xx_hal_rtc_ex.c ****       /* Clear the Tamper interrupt pending bit */
 635:Drivers/STM32F3xx_HAL_Driver/Src/stm32f3xx_hal_rtc_ex.c ****       __HAL_RTC_TAMPER_CLEAR_FLAG(hrtc, RTC_FLAG_TAMP3F);
 636:Drivers/STM32F3xx_HAL_Driver/Src/stm32f3xx_hal_rtc_ex.c **** 
 637:Drivers/STM32F3xx_HAL_Driver/Src/stm32f3xx_hal_rtc_ex.c ****       /* Tamper callback */
 638:Drivers/STM32F3xx_HAL_Driver/Src/stm32f3xx_hal_rtc_ex.c **** #if (USE_HAL_RTC_REGISTER_CALLBACKS == 1)
 639:Drivers/STM32F3xx_HAL_Driver/Src/stm32f3xx_hal_rtc_ex.c ****       hrtc->Tamper3EventCallback(hrtc);
 640:Drivers/STM32F3xx_HAL_Driver/Src/stm32f3xx_hal_rtc_ex.c **** #else
 641:Drivers/STM32F3xx_HAL_Driver/Src/stm32f3xx_hal_rtc_ex.c ****       HAL_RTCEx_Tamper3EventCallback(hrtc);
 642:Drivers/STM32F3xx_HAL_Driver/Src/stm32f3xx_hal_rtc_ex.c **** #endif /* USE_HAL_RTC_REGISTER_CALLBACKS */
 643:Drivers/STM32F3xx_HAL_Driver/Src/stm32f3xx_hal_rtc_ex.c ****     }
 644:Drivers/STM32F3xx_HAL_Driver/Src/stm32f3xx_hal_rtc_ex.c ****   }
 645:Drivers/STM32F3xx_HAL_Driver/Src/stm32f3xx_hal_rtc_ex.c **** #endif /* RTC_TAMPER3_SUPPORT */
 646:Drivers/STM32F3xx_HAL_Driver/Src/stm32f3xx_hal_rtc_ex.c **** 
 647:Drivers/STM32F3xx_HAL_Driver/Src/stm32f3xx_hal_rtc_ex.c ****   /* Change RTC state */
 648:Drivers/STM32F3xx_HAL_Driver/Src/stm32f3xx_hal_rtc_ex.c ****   hrtc->State = HAL_RTC_STATE_READY;
 649:Drivers/STM32F3xx_HAL_Driver/Src/stm32f3xx_hal_rtc_ex.c **** }
 650:Drivers/STM32F3xx_HAL_Driver/Src/stm32f3xx_hal_rtc_ex.c **** 
 651:Drivers/STM32F3xx_HAL_Driver/Src/stm32f3xx_hal_rtc_ex.c **** /**
 652:Drivers/STM32F3xx_HAL_Driver/Src/stm32f3xx_hal_rtc_ex.c ****   * @brief  Timestamp callback.
 653:Drivers/STM32F3xx_HAL_Driver/Src/stm32f3xx_hal_rtc_ex.c ****   * @param  hrtc pointer to a RTC_HandleTypeDef structure that contains
 654:Drivers/STM32F3xx_HAL_Driver/Src/stm32f3xx_hal_rtc_ex.c ****   *                the configuration information for RTC.
 655:Drivers/STM32F3xx_HAL_Driver/Src/stm32f3xx_hal_rtc_ex.c ****   * @retval None
 656:Drivers/STM32F3xx_HAL_Driver/Src/stm32f3xx_hal_rtc_ex.c ****   */
 657:Drivers/STM32F3xx_HAL_Driver/Src/stm32f3xx_hal_rtc_ex.c **** __weak void HAL_RTCEx_TimeStampEventCallback(RTC_HandleTypeDef *hrtc)
 658:Drivers/STM32F3xx_HAL_Driver/Src/stm32f3xx_hal_rtc_ex.c **** {
 904              		.loc 1 658 1 is_stmt 1 view -0
 905              		.cfi_startproc
 906              		@ args = 0, pretend = 0, frame = 0
 907              		@ frame_needed = 0, uses_anonymous_args = 0
 908              		@ link register save eliminated.
ARM GAS  /tmp/ccpBOonR.s 			page 29


 659:Drivers/STM32F3xx_HAL_Driver/Src/stm32f3xx_hal_rtc_ex.c ****   /* Prevent unused argument(s) compilation warning */
 660:Drivers/STM32F3xx_HAL_Driver/Src/stm32f3xx_hal_rtc_ex.c ****   UNUSED(hrtc);
 909              		.loc 1 660 3 view .LVU310
 661:Drivers/STM32F3xx_HAL_Driver/Src/stm32f3xx_hal_rtc_ex.c **** 
 662:Drivers/STM32F3xx_HAL_Driver/Src/stm32f3xx_hal_rtc_ex.c ****   /* NOTE: This function should not be modified, when the callback is needed,
 663:Drivers/STM32F3xx_HAL_Driver/Src/stm32f3xx_hal_rtc_ex.c ****            the HAL_RTCEx_TimeStampEventCallback could be implemented in the user file
 664:Drivers/STM32F3xx_HAL_Driver/Src/stm32f3xx_hal_rtc_ex.c ****   */
 665:Drivers/STM32F3xx_HAL_Driver/Src/stm32f3xx_hal_rtc_ex.c **** }
 910              		.loc 1 665 1 is_stmt 0 view .LVU311
 911 0000 7047     		bx	lr
 912              		.cfi_endproc
 913              	.LFE138:
 915              		.section	.text.HAL_RTCEx_Tamper1EventCallback,"ax",%progbits
 916              		.align	1
 917              		.weak	HAL_RTCEx_Tamper1EventCallback
 918              		.syntax unified
 919              		.thumb
 920              		.thumb_func
 921              		.fpu fpv4-sp-d16
 923              	HAL_RTCEx_Tamper1EventCallback:
 924              	.LVL77:
 925              	.LFB139:
 666:Drivers/STM32F3xx_HAL_Driver/Src/stm32f3xx_hal_rtc_ex.c **** 
 667:Drivers/STM32F3xx_HAL_Driver/Src/stm32f3xx_hal_rtc_ex.c **** /**
 668:Drivers/STM32F3xx_HAL_Driver/Src/stm32f3xx_hal_rtc_ex.c ****   * @brief  Tamper 1 callback.
 669:Drivers/STM32F3xx_HAL_Driver/Src/stm32f3xx_hal_rtc_ex.c ****   * @param  hrtc pointer to a RTC_HandleTypeDef structure that contains
 670:Drivers/STM32F3xx_HAL_Driver/Src/stm32f3xx_hal_rtc_ex.c ****   *                the configuration information for RTC.
 671:Drivers/STM32F3xx_HAL_Driver/Src/stm32f3xx_hal_rtc_ex.c ****   * @retval None
 672:Drivers/STM32F3xx_HAL_Driver/Src/stm32f3xx_hal_rtc_ex.c ****   */
 673:Drivers/STM32F3xx_HAL_Driver/Src/stm32f3xx_hal_rtc_ex.c **** __weak void HAL_RTCEx_Tamper1EventCallback(RTC_HandleTypeDef *hrtc)
 674:Drivers/STM32F3xx_HAL_Driver/Src/stm32f3xx_hal_rtc_ex.c **** {
 926              		.loc 1 674 1 is_stmt 1 view -0
 927              		.cfi_startproc
 928              		@ args = 0, pretend = 0, frame = 0
 929              		@ frame_needed = 0, uses_anonymous_args = 0
 930              		@ link register save eliminated.
 675:Drivers/STM32F3xx_HAL_Driver/Src/stm32f3xx_hal_rtc_ex.c ****   /* Prevent unused argument(s) compilation warning */
 676:Drivers/STM32F3xx_HAL_Driver/Src/stm32f3xx_hal_rtc_ex.c ****   UNUSED(hrtc);
 931              		.loc 1 676 3 view .LVU313
 677:Drivers/STM32F3xx_HAL_Driver/Src/stm32f3xx_hal_rtc_ex.c **** 
 678:Drivers/STM32F3xx_HAL_Driver/Src/stm32f3xx_hal_rtc_ex.c ****   /* NOTE: This function should not be modified, when the callback is needed,
 679:Drivers/STM32F3xx_HAL_Driver/Src/stm32f3xx_hal_rtc_ex.c ****            the HAL_RTCEx_Tamper1EventCallback could be implemented in the user file
 680:Drivers/STM32F3xx_HAL_Driver/Src/stm32f3xx_hal_rtc_ex.c ****    */
 681:Drivers/STM32F3xx_HAL_Driver/Src/stm32f3xx_hal_rtc_ex.c **** }
 932              		.loc 1 681 1 is_stmt 0 view .LVU314
 933 0000 7047     		bx	lr
 934              		.cfi_endproc
 935              	.LFE139:
 937              		.section	.text.HAL_RTCEx_Tamper2EventCallback,"ax",%progbits
 938              		.align	1
 939              		.weak	HAL_RTCEx_Tamper2EventCallback
 940              		.syntax unified
 941              		.thumb
 942              		.thumb_func
 943              		.fpu fpv4-sp-d16
 945              	HAL_RTCEx_Tamper2EventCallback:
 946              	.LVL78:
ARM GAS  /tmp/ccpBOonR.s 			page 30


 947              	.LFB140:
 682:Drivers/STM32F3xx_HAL_Driver/Src/stm32f3xx_hal_rtc_ex.c **** 
 683:Drivers/STM32F3xx_HAL_Driver/Src/stm32f3xx_hal_rtc_ex.c **** /**
 684:Drivers/STM32F3xx_HAL_Driver/Src/stm32f3xx_hal_rtc_ex.c ****   * @brief  Tamper 2 callback.
 685:Drivers/STM32F3xx_HAL_Driver/Src/stm32f3xx_hal_rtc_ex.c ****   * @param  hrtc pointer to a RTC_HandleTypeDef structure that contains
 686:Drivers/STM32F3xx_HAL_Driver/Src/stm32f3xx_hal_rtc_ex.c ****   *                the configuration information for RTC.
 687:Drivers/STM32F3xx_HAL_Driver/Src/stm32f3xx_hal_rtc_ex.c ****   * @retval None
 688:Drivers/STM32F3xx_HAL_Driver/Src/stm32f3xx_hal_rtc_ex.c ****   */
 689:Drivers/STM32F3xx_HAL_Driver/Src/stm32f3xx_hal_rtc_ex.c **** __weak void HAL_RTCEx_Tamper2EventCallback(RTC_HandleTypeDef *hrtc)
 690:Drivers/STM32F3xx_HAL_Driver/Src/stm32f3xx_hal_rtc_ex.c **** {
 948              		.loc 1 690 1 is_stmt 1 view -0
 949              		.cfi_startproc
 950              		@ args = 0, pretend = 0, frame = 0
 951              		@ frame_needed = 0, uses_anonymous_args = 0
 952              		@ link register save eliminated.
 691:Drivers/STM32F3xx_HAL_Driver/Src/stm32f3xx_hal_rtc_ex.c ****   /* Prevent unused argument(s) compilation warning */
 692:Drivers/STM32F3xx_HAL_Driver/Src/stm32f3xx_hal_rtc_ex.c ****   UNUSED(hrtc);
 953              		.loc 1 692 3 view .LVU316
 693:Drivers/STM32F3xx_HAL_Driver/Src/stm32f3xx_hal_rtc_ex.c **** 
 694:Drivers/STM32F3xx_HAL_Driver/Src/stm32f3xx_hal_rtc_ex.c ****   /* NOTE: This function should not be modified, when the callback is needed,
 695:Drivers/STM32F3xx_HAL_Driver/Src/stm32f3xx_hal_rtc_ex.c ****            the HAL_RTCEx_Tamper2EventCallback could be implemented in the user file
 696:Drivers/STM32F3xx_HAL_Driver/Src/stm32f3xx_hal_rtc_ex.c ****    */
 697:Drivers/STM32F3xx_HAL_Driver/Src/stm32f3xx_hal_rtc_ex.c **** }
 954              		.loc 1 697 1 is_stmt 0 view .LVU317
 955 0000 7047     		bx	lr
 956              		.cfi_endproc
 957              	.LFE140:
 959              		.section	.text.HAL_RTCEx_Tamper3EventCallback,"ax",%progbits
 960              		.align	1
 961              		.weak	HAL_RTCEx_Tamper3EventCallback
 962              		.syntax unified
 963              		.thumb
 964              		.thumb_func
 965              		.fpu fpv4-sp-d16
 967              	HAL_RTCEx_Tamper3EventCallback:
 968              	.LVL79:
 969              	.LFB141:
 698:Drivers/STM32F3xx_HAL_Driver/Src/stm32f3xx_hal_rtc_ex.c **** 
 699:Drivers/STM32F3xx_HAL_Driver/Src/stm32f3xx_hal_rtc_ex.c **** #if defined(RTC_TAMPER3_SUPPORT)
 700:Drivers/STM32F3xx_HAL_Driver/Src/stm32f3xx_hal_rtc_ex.c **** /**
 701:Drivers/STM32F3xx_HAL_Driver/Src/stm32f3xx_hal_rtc_ex.c ****   * @brief  Tamper 3 callback.
 702:Drivers/STM32F3xx_HAL_Driver/Src/stm32f3xx_hal_rtc_ex.c ****   * @param  hrtc pointer to a RTC_HandleTypeDef structure that contains
 703:Drivers/STM32F3xx_HAL_Driver/Src/stm32f3xx_hal_rtc_ex.c ****   *                the configuration information for RTC.
 704:Drivers/STM32F3xx_HAL_Driver/Src/stm32f3xx_hal_rtc_ex.c ****   * @retval None
 705:Drivers/STM32F3xx_HAL_Driver/Src/stm32f3xx_hal_rtc_ex.c ****   */
 706:Drivers/STM32F3xx_HAL_Driver/Src/stm32f3xx_hal_rtc_ex.c **** __weak void HAL_RTCEx_Tamper3EventCallback(RTC_HandleTypeDef *hrtc)
 707:Drivers/STM32F3xx_HAL_Driver/Src/stm32f3xx_hal_rtc_ex.c **** {
 970              		.loc 1 707 1 is_stmt 1 view -0
 971              		.cfi_startproc
 972              		@ args = 0, pretend = 0, frame = 0
 973              		@ frame_needed = 0, uses_anonymous_args = 0
 974              		@ link register save eliminated.
 708:Drivers/STM32F3xx_HAL_Driver/Src/stm32f3xx_hal_rtc_ex.c ****   /* Prevent unused argument(s) compilation warning */
 709:Drivers/STM32F3xx_HAL_Driver/Src/stm32f3xx_hal_rtc_ex.c ****   UNUSED(hrtc);
 975              		.loc 1 709 3 view .LVU319
 710:Drivers/STM32F3xx_HAL_Driver/Src/stm32f3xx_hal_rtc_ex.c **** 
 711:Drivers/STM32F3xx_HAL_Driver/Src/stm32f3xx_hal_rtc_ex.c ****   /* NOTE: This function should not be modified, when the callback is needed,
ARM GAS  /tmp/ccpBOonR.s 			page 31


 712:Drivers/STM32F3xx_HAL_Driver/Src/stm32f3xx_hal_rtc_ex.c ****            the HAL_RTCEx_Tamper3EventCallback could be implemented in the user file
 713:Drivers/STM32F3xx_HAL_Driver/Src/stm32f3xx_hal_rtc_ex.c ****    */
 714:Drivers/STM32F3xx_HAL_Driver/Src/stm32f3xx_hal_rtc_ex.c **** }
 976              		.loc 1 714 1 is_stmt 0 view .LVU320
 977 0000 7047     		bx	lr
 978              		.cfi_endproc
 979              	.LFE141:
 981              		.section	.text.HAL_RTCEx_TamperTimeStampIRQHandler,"ax",%progbits
 982              		.align	1
 983              		.global	HAL_RTCEx_TamperTimeStampIRQHandler
 984              		.syntax unified
 985              		.thumb
 986              		.thumb_func
 987              		.fpu fpv4-sp-d16
 989              	HAL_RTCEx_TamperTimeStampIRQHandler:
 990              	.LVL80:
 991              	.LFB137:
 568:Drivers/STM32F3xx_HAL_Driver/Src/stm32f3xx_hal_rtc_ex.c ****   /* Clear the EXTI's Flag for RTC Timestamp and Tamper */
 992              		.loc 1 568 1 is_stmt 1 view -0
 993              		.cfi_startproc
 994              		@ args = 0, pretend = 0, frame = 0
 995              		@ frame_needed = 0, uses_anonymous_args = 0
 568:Drivers/STM32F3xx_HAL_Driver/Src/stm32f3xx_hal_rtc_ex.c ****   /* Clear the EXTI's Flag for RTC Timestamp and Tamper */
 996              		.loc 1 568 1 is_stmt 0 view .LVU322
 997 0000 10B5     		push	{r4, lr}
 998              	.LCFI15:
 999              		.cfi_def_cfa_offset 8
 1000              		.cfi_offset 4, -8
 1001              		.cfi_offset 14, -4
 1002 0002 0446     		mov	r4, r0
 570:Drivers/STM32F3xx_HAL_Driver/Src/stm32f3xx_hal_rtc_ex.c **** 
 1003              		.loc 1 570 3 is_stmt 1 view .LVU323
 1004 0004 2A4B     		ldr	r3, .L67
 1005 0006 4FF40022 		mov	r2, #524288
 1006 000a 5A61     		str	r2, [r3, #20]
 573:Drivers/STM32F3xx_HAL_Driver/Src/stm32f3xx_hal_rtc_ex.c ****   {
 1007              		.loc 1 573 3 view .LVU324
 573:Drivers/STM32F3xx_HAL_Driver/Src/stm32f3xx_hal_rtc_ex.c ****   {
 1008              		.loc 1 573 7 is_stmt 0 view .LVU325
 1009 000c 0368     		ldr	r3, [r0]
 1010 000e 9A68     		ldr	r2, [r3, #8]
 573:Drivers/STM32F3xx_HAL_Driver/Src/stm32f3xx_hal_rtc_ex.c ****   {
 1011              		.loc 1 573 6 view .LVU326
 1012 0010 12F4004F 		tst	r2, #32768
 1013 0014 03D0     		beq	.L58
 576:Drivers/STM32F3xx_HAL_Driver/Src/stm32f3xx_hal_rtc_ex.c ****     {
 1014              		.loc 1 576 5 is_stmt 1 view .LVU327
 576:Drivers/STM32F3xx_HAL_Driver/Src/stm32f3xx_hal_rtc_ex.c ****     {
 1015              		.loc 1 576 9 is_stmt 0 view .LVU328
 1016 0016 DB68     		ldr	r3, [r3, #12]
 576:Drivers/STM32F3xx_HAL_Driver/Src/stm32f3xx_hal_rtc_ex.c ****     {
 1017              		.loc 1 576 8 view .LVU329
 1018 0018 13F4006F 		tst	r3, #2048
 1019 001c 1DD1     		bne	.L63
 1020              	.LVL81:
 1021              	.L58:
 592:Drivers/STM32F3xx_HAL_Driver/Src/stm32f3xx_hal_rtc_ex.c ****   {
ARM GAS  /tmp/ccpBOonR.s 			page 32


 1022              		.loc 1 592 3 is_stmt 1 view .LVU330
 592:Drivers/STM32F3xx_HAL_Driver/Src/stm32f3xx_hal_rtc_ex.c ****   {
 1023              		.loc 1 592 7 is_stmt 0 view .LVU331
 1024 001e 2368     		ldr	r3, [r4]
 1025 0020 1A6C     		ldr	r2, [r3, #64]
 592:Drivers/STM32F3xx_HAL_Driver/Src/stm32f3xx_hal_rtc_ex.c ****   {
 1026              		.loc 1 592 6 view .LVU332
 1027 0022 12F0040F 		tst	r2, #4
 1028 0026 03D0     		beq	.L59
 595:Drivers/STM32F3xx_HAL_Driver/Src/stm32f3xx_hal_rtc_ex.c ****     {
 1029              		.loc 1 595 5 is_stmt 1 view .LVU333
 595:Drivers/STM32F3xx_HAL_Driver/Src/stm32f3xx_hal_rtc_ex.c ****     {
 1030              		.loc 1 595 9 is_stmt 0 view .LVU334
 1031 0028 DA68     		ldr	r2, [r3, #12]
 595:Drivers/STM32F3xx_HAL_Driver/Src/stm32f3xx_hal_rtc_ex.c ****     {
 1032              		.loc 1 595 8 view .LVU335
 1033 002a 12F4005F 		tst	r2, #8192
 1034 002e 1DD1     		bne	.L64
 1035              	.L59:
 610:Drivers/STM32F3xx_HAL_Driver/Src/stm32f3xx_hal_rtc_ex.c ****   {
 1036              		.loc 1 610 3 is_stmt 1 view .LVU336
 610:Drivers/STM32F3xx_HAL_Driver/Src/stm32f3xx_hal_rtc_ex.c ****   {
 1037              		.loc 1 610 7 is_stmt 0 view .LVU337
 1038 0030 2368     		ldr	r3, [r4]
 1039 0032 1A6C     		ldr	r2, [r3, #64]
 610:Drivers/STM32F3xx_HAL_Driver/Src/stm32f3xx_hal_rtc_ex.c ****   {
 1040              		.loc 1 610 6 view .LVU338
 1041 0034 12F0040F 		tst	r2, #4
 1042 0038 03D0     		beq	.L60
 613:Drivers/STM32F3xx_HAL_Driver/Src/stm32f3xx_hal_rtc_ex.c ****     {
 1043              		.loc 1 613 5 is_stmt 1 view .LVU339
 613:Drivers/STM32F3xx_HAL_Driver/Src/stm32f3xx_hal_rtc_ex.c ****     {
 1044              		.loc 1 613 9 is_stmt 0 view .LVU340
 1045 003a DA68     		ldr	r2, [r3, #12]
 613:Drivers/STM32F3xx_HAL_Driver/Src/stm32f3xx_hal_rtc_ex.c ****     {
 1046              		.loc 1 613 8 view .LVU341
 1047 003c 12F4804F 		tst	r2, #16384
 1048 0040 1DD1     		bne	.L65
 1049              	.L60:
 629:Drivers/STM32F3xx_HAL_Driver/Src/stm32f3xx_hal_rtc_ex.c ****   {
 1050              		.loc 1 629 3 is_stmt 1 view .LVU342
 629:Drivers/STM32F3xx_HAL_Driver/Src/stm32f3xx_hal_rtc_ex.c ****   {
 1051              		.loc 1 629 7 is_stmt 0 view .LVU343
 1052 0042 2368     		ldr	r3, [r4]
 1053 0044 1A6C     		ldr	r2, [r3, #64]
 629:Drivers/STM32F3xx_HAL_Driver/Src/stm32f3xx_hal_rtc_ex.c ****   {
 1054              		.loc 1 629 6 view .LVU344
 1055 0046 12F0040F 		tst	r2, #4
 1056 004a 03D0     		beq	.L61
 632:Drivers/STM32F3xx_HAL_Driver/Src/stm32f3xx_hal_rtc_ex.c ****     {
 1057              		.loc 1 632 5 is_stmt 1 view .LVU345
 632:Drivers/STM32F3xx_HAL_Driver/Src/stm32f3xx_hal_rtc_ex.c ****     {
 1058              		.loc 1 632 9 is_stmt 0 view .LVU346
 1059 004c DA68     		ldr	r2, [r3, #12]
 632:Drivers/STM32F3xx_HAL_Driver/Src/stm32f3xx_hal_rtc_ex.c ****     {
 1060              		.loc 1 632 8 view .LVU347
 1061 004e 12F4004F 		tst	r2, #32768
ARM GAS  /tmp/ccpBOonR.s 			page 33


 1062 0052 1DD1     		bne	.L66
 1063              	.L61:
 648:Drivers/STM32F3xx_HAL_Driver/Src/stm32f3xx_hal_rtc_ex.c **** }
 1064              		.loc 1 648 3 is_stmt 1 view .LVU348
 648:Drivers/STM32F3xx_HAL_Driver/Src/stm32f3xx_hal_rtc_ex.c **** }
 1065              		.loc 1 648 15 is_stmt 0 view .LVU349
 1066 0054 0123     		movs	r3, #1
 1067 0056 6377     		strb	r3, [r4, #29]
 649:Drivers/STM32F3xx_HAL_Driver/Src/stm32f3xx_hal_rtc_ex.c **** 
 1068              		.loc 1 649 1 view .LVU350
 1069 0058 10BD     		pop	{r4, pc}
 1070              	.LVL82:
 1071              	.L63:
 582:Drivers/STM32F3xx_HAL_Driver/Src/stm32f3xx_hal_rtc_ex.c **** #endif /* USE_HAL_RTC_REGISTER_CALLBACKS */
 1072              		.loc 1 582 7 is_stmt 1 view .LVU351
 1073 005a FFF7FEFF 		bl	HAL_RTCEx_TimeStampEventCallback
 1074              	.LVL83:
 587:Drivers/STM32F3xx_HAL_Driver/Src/stm32f3xx_hal_rtc_ex.c ****     }
 1075              		.loc 1 587 7 view .LVU352
 1076 005e 2268     		ldr	r2, [r4]
 1077 0060 D368     		ldr	r3, [r2, #12]
 1078 0062 DBB2     		uxtb	r3, r3
 1079 0064 63F40863 		orn	r3, r3, #2176
 1080 0068 D360     		str	r3, [r2, #12]
 1081 006a D8E7     		b	.L58
 1082              	.L64:
 598:Drivers/STM32F3xx_HAL_Driver/Src/stm32f3xx_hal_rtc_ex.c **** 
 1083              		.loc 1 598 7 view .LVU353
 1084 006c DA68     		ldr	r2, [r3, #12]
 1085 006e D2B2     		uxtb	r2, r2
 1086 0070 62F40252 		orn	r2, r2, #8320
 1087 0074 DA60     		str	r2, [r3, #12]
 604:Drivers/STM32F3xx_HAL_Driver/Src/stm32f3xx_hal_rtc_ex.c **** #endif /* USE_HAL_RTC_REGISTER_CALLBACKS */
 1088              		.loc 1 604 7 view .LVU354
 1089 0076 2046     		mov	r0, r4
 1090 0078 FFF7FEFF 		bl	HAL_RTCEx_Tamper1EventCallback
 1091              	.LVL84:
 1092 007c D8E7     		b	.L59
 1093              	.L65:
 616:Drivers/STM32F3xx_HAL_Driver/Src/stm32f3xx_hal_rtc_ex.c **** 
 1094              		.loc 1 616 7 view .LVU355
 1095 007e DA68     		ldr	r2, [r3, #12]
 1096 0080 D2B2     		uxtb	r2, r2
 1097 0082 62F48142 		orn	r2, r2, #16512
 1098 0086 DA60     		str	r2, [r3, #12]
 622:Drivers/STM32F3xx_HAL_Driver/Src/stm32f3xx_hal_rtc_ex.c **** #endif /* USE_HAL_RTC_REGISTER_CALLBACKS */
 1099              		.loc 1 622 7 view .LVU356
 1100 0088 2046     		mov	r0, r4
 1101 008a FFF7FEFF 		bl	HAL_RTCEx_Tamper2EventCallback
 1102              	.LVL85:
 1103 008e D8E7     		b	.L60
 1104              	.L66:
 635:Drivers/STM32F3xx_HAL_Driver/Src/stm32f3xx_hal_rtc_ex.c **** 
 1105              		.loc 1 635 7 view .LVU357
 1106 0090 DA68     		ldr	r2, [r3, #12]
 1107 0092 D2B2     		uxtb	r2, r2
 1108 0094 42F07F42 		orr	r2, r2, #-16777216
ARM GAS  /tmp/ccpBOonR.s 			page 34


 1109 0098 42F47F02 		orr	r2, r2, #16711680
 1110 009c 42F4FE42 		orr	r2, r2, #32512
 1111 00a0 42F07F02 		orr	r2, r2, #127
 1112 00a4 DA60     		str	r2, [r3, #12]
 641:Drivers/STM32F3xx_HAL_Driver/Src/stm32f3xx_hal_rtc_ex.c **** #endif /* USE_HAL_RTC_REGISTER_CALLBACKS */
 1113              		.loc 1 641 7 view .LVU358
 1114 00a6 2046     		mov	r0, r4
 1115 00a8 FFF7FEFF 		bl	HAL_RTCEx_Tamper3EventCallback
 1116              	.LVL86:
 1117 00ac D2E7     		b	.L61
 1118              	.L68:
 1119 00ae 00BF     		.align	2
 1120              	.L67:
 1121 00b0 00040140 		.word	1073808384
 1122              		.cfi_endproc
 1123              	.LFE137:
 1125              		.section	.text.HAL_RTCEx_PollForTimeStampEvent,"ax",%progbits
 1126              		.align	1
 1127              		.global	HAL_RTCEx_PollForTimeStampEvent
 1128              		.syntax unified
 1129              		.thumb
 1130              		.thumb_func
 1131              		.fpu fpv4-sp-d16
 1133              	HAL_RTCEx_PollForTimeStampEvent:
 1134              	.LVL87:
 1135              	.LFB142:
 715:Drivers/STM32F3xx_HAL_Driver/Src/stm32f3xx_hal_rtc_ex.c **** #endif /* RTC_TAMPER3_SUPPORT */
 716:Drivers/STM32F3xx_HAL_Driver/Src/stm32f3xx_hal_rtc_ex.c **** 
 717:Drivers/STM32F3xx_HAL_Driver/Src/stm32f3xx_hal_rtc_ex.c **** /**
 718:Drivers/STM32F3xx_HAL_Driver/Src/stm32f3xx_hal_rtc_ex.c ****   * @brief  Handles Timestamp polling request.
 719:Drivers/STM32F3xx_HAL_Driver/Src/stm32f3xx_hal_rtc_ex.c ****   * @param  hrtc pointer to a RTC_HandleTypeDef structure that contains
 720:Drivers/STM32F3xx_HAL_Driver/Src/stm32f3xx_hal_rtc_ex.c ****   *                the configuration information for RTC.
 721:Drivers/STM32F3xx_HAL_Driver/Src/stm32f3xx_hal_rtc_ex.c ****   * @param  Timeout Timeout duration
 722:Drivers/STM32F3xx_HAL_Driver/Src/stm32f3xx_hal_rtc_ex.c ****   * @retval HAL status
 723:Drivers/STM32F3xx_HAL_Driver/Src/stm32f3xx_hal_rtc_ex.c ****   */
 724:Drivers/STM32F3xx_HAL_Driver/Src/stm32f3xx_hal_rtc_ex.c **** HAL_StatusTypeDef HAL_RTCEx_PollForTimeStampEvent(RTC_HandleTypeDef *hrtc, uint32_t Timeout)
 725:Drivers/STM32F3xx_HAL_Driver/Src/stm32f3xx_hal_rtc_ex.c **** {
 1136              		.loc 1 725 1 view -0
 1137              		.cfi_startproc
 1138              		@ args = 0, pretend = 0, frame = 0
 1139              		@ frame_needed = 0, uses_anonymous_args = 0
 1140              		.loc 1 725 1 is_stmt 0 view .LVU360
 1141 0000 70B5     		push	{r4, r5, r6, lr}
 1142              	.LCFI16:
 1143              		.cfi_def_cfa_offset 16
 1144              		.cfi_offset 4, -16
 1145              		.cfi_offset 5, -12
 1146              		.cfi_offset 6, -8
 1147              		.cfi_offset 14, -4
 1148 0002 0546     		mov	r5, r0
 1149 0004 0C46     		mov	r4, r1
 726:Drivers/STM32F3xx_HAL_Driver/Src/stm32f3xx_hal_rtc_ex.c ****   uint32_t tickstart = 0U;
 1150              		.loc 1 726 3 is_stmt 1 view .LVU361
 1151              	.LVL88:
 727:Drivers/STM32F3xx_HAL_Driver/Src/stm32f3xx_hal_rtc_ex.c **** 
 728:Drivers/STM32F3xx_HAL_Driver/Src/stm32f3xx_hal_rtc_ex.c ****   /* Get tick */
 729:Drivers/STM32F3xx_HAL_Driver/Src/stm32f3xx_hal_rtc_ex.c ****   tickstart = HAL_GetTick();
ARM GAS  /tmp/ccpBOonR.s 			page 35


 1152              		.loc 1 729 3 view .LVU362
 1153              		.loc 1 729 15 is_stmt 0 view .LVU363
 1154 0006 FFF7FEFF 		bl	HAL_GetTick
 1155              	.LVL89:
 1156              		.loc 1 729 15 view .LVU364
 1157 000a 0646     		mov	r6, r0
 1158              	.LVL90:
 730:Drivers/STM32F3xx_HAL_Driver/Src/stm32f3xx_hal_rtc_ex.c **** 
 731:Drivers/STM32F3xx_HAL_Driver/Src/stm32f3xx_hal_rtc_ex.c ****   while (__HAL_RTC_TIMESTAMP_GET_FLAG(hrtc, RTC_FLAG_TSF) == 0U)
 1159              		.loc 1 731 3 is_stmt 1 view .LVU365
 1160              		.loc 1 731 9 is_stmt 0 view .LVU366
 1161 000c 04E0     		b	.L70
 1162              	.LVL91:
 1163              	.L71:
 732:Drivers/STM32F3xx_HAL_Driver/Src/stm32f3xx_hal_rtc_ex.c ****   {
 733:Drivers/STM32F3xx_HAL_Driver/Src/stm32f3xx_hal_rtc_ex.c ****     if (Timeout != HAL_MAX_DELAY)
 734:Drivers/STM32F3xx_HAL_Driver/Src/stm32f3xx_hal_rtc_ex.c ****     {
 735:Drivers/STM32F3xx_HAL_Driver/Src/stm32f3xx_hal_rtc_ex.c ****       if ((Timeout == 0U) || ((HAL_GetTick() - tickstart) > Timeout))
 736:Drivers/STM32F3xx_HAL_Driver/Src/stm32f3xx_hal_rtc_ex.c ****       {
 737:Drivers/STM32F3xx_HAL_Driver/Src/stm32f3xx_hal_rtc_ex.c ****         hrtc->State = HAL_RTC_STATE_TIMEOUT;
 738:Drivers/STM32F3xx_HAL_Driver/Src/stm32f3xx_hal_rtc_ex.c ****         return HAL_TIMEOUT;
 739:Drivers/STM32F3xx_HAL_Driver/Src/stm32f3xx_hal_rtc_ex.c ****       }
 740:Drivers/STM32F3xx_HAL_Driver/Src/stm32f3xx_hal_rtc_ex.c ****     }
 741:Drivers/STM32F3xx_HAL_Driver/Src/stm32f3xx_hal_rtc_ex.c **** 
 742:Drivers/STM32F3xx_HAL_Driver/Src/stm32f3xx_hal_rtc_ex.c ****     if (__HAL_RTC_TIMESTAMP_GET_FLAG(hrtc, RTC_FLAG_TSOVF) != 0U)
 1164              		.loc 1 742 5 is_stmt 1 view .LVU367
 1165              		.loc 1 742 9 is_stmt 0 view .LVU368
 1166 000e 2B68     		ldr	r3, [r5]
 1167 0010 DA68     		ldr	r2, [r3, #12]
 1168              		.loc 1 742 8 view .LVU369
 1169 0012 12F4805F 		tst	r2, #4096
 1170 0016 10D1     		bne	.L76
 1171              	.L70:
 731:Drivers/STM32F3xx_HAL_Driver/Src/stm32f3xx_hal_rtc_ex.c ****   {
 1172              		.loc 1 731 10 view .LVU370
 1173 0018 2B68     		ldr	r3, [r5]
 1174 001a DB68     		ldr	r3, [r3, #12]
 731:Drivers/STM32F3xx_HAL_Driver/Src/stm32f3xx_hal_rtc_ex.c ****   {
 1175              		.loc 1 731 9 view .LVU371
 1176 001c 13F4006F 		tst	r3, #2048
 1177 0020 14D1     		bne	.L77
 733:Drivers/STM32F3xx_HAL_Driver/Src/stm32f3xx_hal_rtc_ex.c ****     {
 1178              		.loc 1 733 5 is_stmt 1 view .LVU372
 733:Drivers/STM32F3xx_HAL_Driver/Src/stm32f3xx_hal_rtc_ex.c ****     {
 1179              		.loc 1 733 8 is_stmt 0 view .LVU373
 1180 0022 B4F1FF3F 		cmp	r4, #-1
 1181 0026 F2D0     		beq	.L71
 735:Drivers/STM32F3xx_HAL_Driver/Src/stm32f3xx_hal_rtc_ex.c ****       {
 1182              		.loc 1 735 7 is_stmt 1 view .LVU374
 735:Drivers/STM32F3xx_HAL_Driver/Src/stm32f3xx_hal_rtc_ex.c ****       {
 1183              		.loc 1 735 10 is_stmt 0 view .LVU375
 1184 0028 24B1     		cbz	r4, .L72
 735:Drivers/STM32F3xx_HAL_Driver/Src/stm32f3xx_hal_rtc_ex.c ****       {
 1185              		.loc 1 735 32 discriminator 1 view .LVU376
 1186 002a FFF7FEFF 		bl	HAL_GetTick
 1187              	.LVL92:
 735:Drivers/STM32F3xx_HAL_Driver/Src/stm32f3xx_hal_rtc_ex.c ****       {
ARM GAS  /tmp/ccpBOonR.s 			page 36


 1188              		.loc 1 735 46 discriminator 1 view .LVU377
 1189 002e 801B     		subs	r0, r0, r6
 735:Drivers/STM32F3xx_HAL_Driver/Src/stm32f3xx_hal_rtc_ex.c ****       {
 1190              		.loc 1 735 27 discriminator 1 view .LVU378
 1191 0030 A042     		cmp	r0, r4
 1192 0032 ECD9     		bls	.L71
 1193              	.L72:
 737:Drivers/STM32F3xx_HAL_Driver/Src/stm32f3xx_hal_rtc_ex.c ****         return HAL_TIMEOUT;
 1194              		.loc 1 737 9 is_stmt 1 view .LVU379
 737:Drivers/STM32F3xx_HAL_Driver/Src/stm32f3xx_hal_rtc_ex.c ****         return HAL_TIMEOUT;
 1195              		.loc 1 737 21 is_stmt 0 view .LVU380
 1196 0034 0320     		movs	r0, #3
 1197 0036 6877     		strb	r0, [r5, #29]
 738:Drivers/STM32F3xx_HAL_Driver/Src/stm32f3xx_hal_rtc_ex.c ****       }
 1198              		.loc 1 738 9 is_stmt 1 view .LVU381
 1199              	.L73:
 743:Drivers/STM32F3xx_HAL_Driver/Src/stm32f3xx_hal_rtc_ex.c ****     {
 744:Drivers/STM32F3xx_HAL_Driver/Src/stm32f3xx_hal_rtc_ex.c ****       /* Clear the Timestamp Overrun Flag */
 745:Drivers/STM32F3xx_HAL_Driver/Src/stm32f3xx_hal_rtc_ex.c ****       __HAL_RTC_TIMESTAMP_CLEAR_FLAG(hrtc, RTC_FLAG_TSOVF);
 746:Drivers/STM32F3xx_HAL_Driver/Src/stm32f3xx_hal_rtc_ex.c **** 
 747:Drivers/STM32F3xx_HAL_Driver/Src/stm32f3xx_hal_rtc_ex.c ****       /* Change Timestamp state */
 748:Drivers/STM32F3xx_HAL_Driver/Src/stm32f3xx_hal_rtc_ex.c ****       hrtc->State = HAL_RTC_STATE_ERROR;
 749:Drivers/STM32F3xx_HAL_Driver/Src/stm32f3xx_hal_rtc_ex.c **** 
 750:Drivers/STM32F3xx_HAL_Driver/Src/stm32f3xx_hal_rtc_ex.c ****       return HAL_ERROR;
 751:Drivers/STM32F3xx_HAL_Driver/Src/stm32f3xx_hal_rtc_ex.c ****     }
 752:Drivers/STM32F3xx_HAL_Driver/Src/stm32f3xx_hal_rtc_ex.c ****   }
 753:Drivers/STM32F3xx_HAL_Driver/Src/stm32f3xx_hal_rtc_ex.c **** 
 754:Drivers/STM32F3xx_HAL_Driver/Src/stm32f3xx_hal_rtc_ex.c ****   /* Change RTC state */
 755:Drivers/STM32F3xx_HAL_Driver/Src/stm32f3xx_hal_rtc_ex.c ****   hrtc->State = HAL_RTC_STATE_READY;
 756:Drivers/STM32F3xx_HAL_Driver/Src/stm32f3xx_hal_rtc_ex.c **** 
 757:Drivers/STM32F3xx_HAL_Driver/Src/stm32f3xx_hal_rtc_ex.c ****   return HAL_OK;
 758:Drivers/STM32F3xx_HAL_Driver/Src/stm32f3xx_hal_rtc_ex.c **** }
 1200              		.loc 1 758 1 is_stmt 0 view .LVU382
 1201 0038 70BD     		pop	{r4, r5, r6, pc}
 1202              	.LVL93:
 1203              	.L76:
 745:Drivers/STM32F3xx_HAL_Driver/Src/stm32f3xx_hal_rtc_ex.c **** 
 1204              		.loc 1 745 7 is_stmt 1 view .LVU383
 1205 003a DA68     		ldr	r2, [r3, #12]
 1206 003c D2B2     		uxtb	r2, r2
 1207 003e 62F48452 		orn	r2, r2, #4224
 1208 0042 DA60     		str	r2, [r3, #12]
 748:Drivers/STM32F3xx_HAL_Driver/Src/stm32f3xx_hal_rtc_ex.c **** 
 1209              		.loc 1 748 7 view .LVU384
 748:Drivers/STM32F3xx_HAL_Driver/Src/stm32f3xx_hal_rtc_ex.c **** 
 1210              		.loc 1 748 19 is_stmt 0 view .LVU385
 1211 0044 0423     		movs	r3, #4
 1212 0046 6B77     		strb	r3, [r5, #29]
 750:Drivers/STM32F3xx_HAL_Driver/Src/stm32f3xx_hal_rtc_ex.c ****     }
 1213              		.loc 1 750 7 is_stmt 1 view .LVU386
 750:Drivers/STM32F3xx_HAL_Driver/Src/stm32f3xx_hal_rtc_ex.c ****     }
 1214              		.loc 1 750 14 is_stmt 0 view .LVU387
 1215 0048 0120     		movs	r0, #1
 1216 004a F5E7     		b	.L73
 1217              	.L77:
 755:Drivers/STM32F3xx_HAL_Driver/Src/stm32f3xx_hal_rtc_ex.c **** 
 1218              		.loc 1 755 3 is_stmt 1 view .LVU388
ARM GAS  /tmp/ccpBOonR.s 			page 37


 755:Drivers/STM32F3xx_HAL_Driver/Src/stm32f3xx_hal_rtc_ex.c **** 
 1219              		.loc 1 755 15 is_stmt 0 view .LVU389
 1220 004c 0123     		movs	r3, #1
 1221 004e 6B77     		strb	r3, [r5, #29]
 757:Drivers/STM32F3xx_HAL_Driver/Src/stm32f3xx_hal_rtc_ex.c **** }
 1222              		.loc 1 757 3 is_stmt 1 view .LVU390
 757:Drivers/STM32F3xx_HAL_Driver/Src/stm32f3xx_hal_rtc_ex.c **** }
 1223              		.loc 1 757 10 is_stmt 0 view .LVU391
 1224 0050 0020     		movs	r0, #0
 1225 0052 F1E7     		b	.L73
 1226              		.cfi_endproc
 1227              	.LFE142:
 1229              		.section	.text.HAL_RTCEx_PollForTamper1Event,"ax",%progbits
 1230              		.align	1
 1231              		.global	HAL_RTCEx_PollForTamper1Event
 1232              		.syntax unified
 1233              		.thumb
 1234              		.thumb_func
 1235              		.fpu fpv4-sp-d16
 1237              	HAL_RTCEx_PollForTamper1Event:
 1238              	.LVL94:
 1239              	.LFB143:
 759:Drivers/STM32F3xx_HAL_Driver/Src/stm32f3xx_hal_rtc_ex.c **** 
 760:Drivers/STM32F3xx_HAL_Driver/Src/stm32f3xx_hal_rtc_ex.c **** /**
 761:Drivers/STM32F3xx_HAL_Driver/Src/stm32f3xx_hal_rtc_ex.c ****   * @brief  Handles Tamper 1 Polling.
 762:Drivers/STM32F3xx_HAL_Driver/Src/stm32f3xx_hal_rtc_ex.c ****   * @param  hrtc pointer to a RTC_HandleTypeDef structure that contains
 763:Drivers/STM32F3xx_HAL_Driver/Src/stm32f3xx_hal_rtc_ex.c ****   *                the configuration information for RTC.
 764:Drivers/STM32F3xx_HAL_Driver/Src/stm32f3xx_hal_rtc_ex.c ****   * @param  Timeout Timeout duration
 765:Drivers/STM32F3xx_HAL_Driver/Src/stm32f3xx_hal_rtc_ex.c ****   * @retval HAL status
 766:Drivers/STM32F3xx_HAL_Driver/Src/stm32f3xx_hal_rtc_ex.c ****   */
 767:Drivers/STM32F3xx_HAL_Driver/Src/stm32f3xx_hal_rtc_ex.c **** HAL_StatusTypeDef HAL_RTCEx_PollForTamper1Event(RTC_HandleTypeDef *hrtc, uint32_t Timeout)
 768:Drivers/STM32F3xx_HAL_Driver/Src/stm32f3xx_hal_rtc_ex.c **** {
 1240              		.loc 1 768 1 is_stmt 1 view -0
 1241              		.cfi_startproc
 1242              		@ args = 0, pretend = 0, frame = 0
 1243              		@ frame_needed = 0, uses_anonymous_args = 0
 1244              		.loc 1 768 1 is_stmt 0 view .LVU393
 1245 0000 70B5     		push	{r4, r5, r6, lr}
 1246              	.LCFI17:
 1247              		.cfi_def_cfa_offset 16
 1248              		.cfi_offset 4, -16
 1249              		.cfi_offset 5, -12
 1250              		.cfi_offset 6, -8
 1251              		.cfi_offset 14, -4
 1252 0002 0446     		mov	r4, r0
 1253 0004 0D46     		mov	r5, r1
 769:Drivers/STM32F3xx_HAL_Driver/Src/stm32f3xx_hal_rtc_ex.c ****   uint32_t tickstart = 0U;
 1254              		.loc 1 769 3 is_stmt 1 view .LVU394
 1255              	.LVL95:
 770:Drivers/STM32F3xx_HAL_Driver/Src/stm32f3xx_hal_rtc_ex.c **** 
 771:Drivers/STM32F3xx_HAL_Driver/Src/stm32f3xx_hal_rtc_ex.c ****   /* Get tick */
 772:Drivers/STM32F3xx_HAL_Driver/Src/stm32f3xx_hal_rtc_ex.c ****   tickstart = HAL_GetTick();
 1256              		.loc 1 772 3 view .LVU395
 1257              		.loc 1 772 15 is_stmt 0 view .LVU396
 1258 0006 FFF7FEFF 		bl	HAL_GetTick
 1259              	.LVL96:
 1260              		.loc 1 772 15 view .LVU397
ARM GAS  /tmp/ccpBOonR.s 			page 38


 1261 000a 0646     		mov	r6, r0
 1262              	.LVL97:
 773:Drivers/STM32F3xx_HAL_Driver/Src/stm32f3xx_hal_rtc_ex.c **** 
 774:Drivers/STM32F3xx_HAL_Driver/Src/stm32f3xx_hal_rtc_ex.c ****   /* Get the status of the Interrupt */
 775:Drivers/STM32F3xx_HAL_Driver/Src/stm32f3xx_hal_rtc_ex.c ****   while (__HAL_RTC_TAMPER_GET_FLAG(hrtc, RTC_FLAG_TAMP1F) == 0U)
 1263              		.loc 1 775 3 is_stmt 1 view .LVU398
 1264              	.L80:
 1265              		.loc 1 775 10 is_stmt 0 view .LVU399
 1266 000c 2368     		ldr	r3, [r4]
 1267 000e DA68     		ldr	r2, [r3, #12]
 1268              		.loc 1 775 9 view .LVU400
 1269 0010 12F4005F 		tst	r2, #8192
 1270 0014 0BD1     		bne	.L85
 776:Drivers/STM32F3xx_HAL_Driver/Src/stm32f3xx_hal_rtc_ex.c ****   {
 777:Drivers/STM32F3xx_HAL_Driver/Src/stm32f3xx_hal_rtc_ex.c ****     if (Timeout != HAL_MAX_DELAY)
 1271              		.loc 1 777 5 is_stmt 1 view .LVU401
 1272              		.loc 1 777 8 is_stmt 0 view .LVU402
 1273 0016 B5F1FF3F 		cmp	r5, #-1
 1274 001a F7D0     		beq	.L80
 778:Drivers/STM32F3xx_HAL_Driver/Src/stm32f3xx_hal_rtc_ex.c ****     {
 779:Drivers/STM32F3xx_HAL_Driver/Src/stm32f3xx_hal_rtc_ex.c ****       if ((Timeout == 0U) || ((HAL_GetTick() - tickstart) > Timeout))
 1275              		.loc 1 779 7 is_stmt 1 view .LVU403
 1276              		.loc 1 779 10 is_stmt 0 view .LVU404
 1277 001c 25B1     		cbz	r5, .L81
 1278              		.loc 1 779 32 discriminator 1 view .LVU405
 1279 001e FFF7FEFF 		bl	HAL_GetTick
 1280              	.LVL98:
 1281              		.loc 1 779 46 discriminator 1 view .LVU406
 1282 0022 801B     		subs	r0, r0, r6
 1283              		.loc 1 779 27 discriminator 1 view .LVU407
 1284 0024 A842     		cmp	r0, r5
 1285 0026 F1D9     		bls	.L80
 1286              	.L81:
 780:Drivers/STM32F3xx_HAL_Driver/Src/stm32f3xx_hal_rtc_ex.c ****       {
 781:Drivers/STM32F3xx_HAL_Driver/Src/stm32f3xx_hal_rtc_ex.c ****         hrtc->State = HAL_RTC_STATE_TIMEOUT;
 1287              		.loc 1 781 9 is_stmt 1 view .LVU408
 1288              		.loc 1 781 21 is_stmt 0 view .LVU409
 1289 0028 0320     		movs	r0, #3
 1290 002a 6077     		strb	r0, [r4, #29]
 782:Drivers/STM32F3xx_HAL_Driver/Src/stm32f3xx_hal_rtc_ex.c ****         return HAL_TIMEOUT;
 1291              		.loc 1 782 9 is_stmt 1 view .LVU410
 1292              		.loc 1 782 16 is_stmt 0 view .LVU411
 1293 002c 07E0     		b	.L82
 1294              	.L85:
 783:Drivers/STM32F3xx_HAL_Driver/Src/stm32f3xx_hal_rtc_ex.c ****       }
 784:Drivers/STM32F3xx_HAL_Driver/Src/stm32f3xx_hal_rtc_ex.c ****     }
 785:Drivers/STM32F3xx_HAL_Driver/Src/stm32f3xx_hal_rtc_ex.c ****   }
 786:Drivers/STM32F3xx_HAL_Driver/Src/stm32f3xx_hal_rtc_ex.c **** 
 787:Drivers/STM32F3xx_HAL_Driver/Src/stm32f3xx_hal_rtc_ex.c ****   /* Clear the Tamper Flag */
 788:Drivers/STM32F3xx_HAL_Driver/Src/stm32f3xx_hal_rtc_ex.c ****   __HAL_RTC_TAMPER_CLEAR_FLAG(hrtc, RTC_FLAG_TAMP1F);
 1295              		.loc 1 788 3 is_stmt 1 view .LVU412
 1296 002e DA68     		ldr	r2, [r3, #12]
 1297 0030 D2B2     		uxtb	r2, r2
 1298 0032 62F40252 		orn	r2, r2, #8320
 1299 0036 DA60     		str	r2, [r3, #12]
 789:Drivers/STM32F3xx_HAL_Driver/Src/stm32f3xx_hal_rtc_ex.c **** 
 790:Drivers/STM32F3xx_HAL_Driver/Src/stm32f3xx_hal_rtc_ex.c ****   /* Change RTC state */
ARM GAS  /tmp/ccpBOonR.s 			page 39


 791:Drivers/STM32F3xx_HAL_Driver/Src/stm32f3xx_hal_rtc_ex.c ****   hrtc->State = HAL_RTC_STATE_READY;
 1300              		.loc 1 791 3 view .LVU413
 1301              		.loc 1 791 15 is_stmt 0 view .LVU414
 1302 0038 0123     		movs	r3, #1
 1303 003a 6377     		strb	r3, [r4, #29]
 792:Drivers/STM32F3xx_HAL_Driver/Src/stm32f3xx_hal_rtc_ex.c **** 
 793:Drivers/STM32F3xx_HAL_Driver/Src/stm32f3xx_hal_rtc_ex.c ****   return HAL_OK;
 1304              		.loc 1 793 3 is_stmt 1 view .LVU415
 1305              		.loc 1 793 10 is_stmt 0 view .LVU416
 1306 003c 0020     		movs	r0, #0
 1307              	.L82:
 794:Drivers/STM32F3xx_HAL_Driver/Src/stm32f3xx_hal_rtc_ex.c **** }
 1308              		.loc 1 794 1 view .LVU417
 1309 003e 70BD     		pop	{r4, r5, r6, pc}
 1310              		.loc 1 794 1 view .LVU418
 1311              		.cfi_endproc
 1312              	.LFE143:
 1314              		.section	.text.HAL_RTCEx_PollForTamper2Event,"ax",%progbits
 1315              		.align	1
 1316              		.global	HAL_RTCEx_PollForTamper2Event
 1317              		.syntax unified
 1318              		.thumb
 1319              		.thumb_func
 1320              		.fpu fpv4-sp-d16
 1322              	HAL_RTCEx_PollForTamper2Event:
 1323              	.LVL99:
 1324              	.LFB144:
 795:Drivers/STM32F3xx_HAL_Driver/Src/stm32f3xx_hal_rtc_ex.c **** 
 796:Drivers/STM32F3xx_HAL_Driver/Src/stm32f3xx_hal_rtc_ex.c **** /**
 797:Drivers/STM32F3xx_HAL_Driver/Src/stm32f3xx_hal_rtc_ex.c ****   * @brief  Handles Tamper 2 Polling.
 798:Drivers/STM32F3xx_HAL_Driver/Src/stm32f3xx_hal_rtc_ex.c ****   * @param  hrtc pointer to a RTC_HandleTypeDef structure that contains
 799:Drivers/STM32F3xx_HAL_Driver/Src/stm32f3xx_hal_rtc_ex.c ****   *                the configuration information for RTC.
 800:Drivers/STM32F3xx_HAL_Driver/Src/stm32f3xx_hal_rtc_ex.c ****   * @param  Timeout Timeout duration
 801:Drivers/STM32F3xx_HAL_Driver/Src/stm32f3xx_hal_rtc_ex.c ****   * @retval HAL status
 802:Drivers/STM32F3xx_HAL_Driver/Src/stm32f3xx_hal_rtc_ex.c ****   */
 803:Drivers/STM32F3xx_HAL_Driver/Src/stm32f3xx_hal_rtc_ex.c **** HAL_StatusTypeDef HAL_RTCEx_PollForTamper2Event(RTC_HandleTypeDef *hrtc, uint32_t Timeout)
 804:Drivers/STM32F3xx_HAL_Driver/Src/stm32f3xx_hal_rtc_ex.c **** {
 1325              		.loc 1 804 1 is_stmt 1 view -0
 1326              		.cfi_startproc
 1327              		@ args = 0, pretend = 0, frame = 0
 1328              		@ frame_needed = 0, uses_anonymous_args = 0
 1329              		.loc 1 804 1 is_stmt 0 view .LVU420
 1330 0000 70B5     		push	{r4, r5, r6, lr}
 1331              	.LCFI18:
 1332              		.cfi_def_cfa_offset 16
 1333              		.cfi_offset 4, -16
 1334              		.cfi_offset 5, -12
 1335              		.cfi_offset 6, -8
 1336              		.cfi_offset 14, -4
 1337 0002 0446     		mov	r4, r0
 1338 0004 0D46     		mov	r5, r1
 805:Drivers/STM32F3xx_HAL_Driver/Src/stm32f3xx_hal_rtc_ex.c ****   uint32_t tickstart = 0U;
 1339              		.loc 1 805 3 is_stmt 1 view .LVU421
 1340              	.LVL100:
 806:Drivers/STM32F3xx_HAL_Driver/Src/stm32f3xx_hal_rtc_ex.c **** 
 807:Drivers/STM32F3xx_HAL_Driver/Src/stm32f3xx_hal_rtc_ex.c ****   /* Get tick */
 808:Drivers/STM32F3xx_HAL_Driver/Src/stm32f3xx_hal_rtc_ex.c ****   tickstart = HAL_GetTick();
ARM GAS  /tmp/ccpBOonR.s 			page 40


 1341              		.loc 1 808 3 view .LVU422
 1342              		.loc 1 808 15 is_stmt 0 view .LVU423
 1343 0006 FFF7FEFF 		bl	HAL_GetTick
 1344              	.LVL101:
 1345              		.loc 1 808 15 view .LVU424
 1346 000a 0646     		mov	r6, r0
 1347              	.LVL102:
 809:Drivers/STM32F3xx_HAL_Driver/Src/stm32f3xx_hal_rtc_ex.c **** 
 810:Drivers/STM32F3xx_HAL_Driver/Src/stm32f3xx_hal_rtc_ex.c ****   /* Get the status of the Interrupt */
 811:Drivers/STM32F3xx_HAL_Driver/Src/stm32f3xx_hal_rtc_ex.c ****   while (__HAL_RTC_TAMPER_GET_FLAG(hrtc, RTC_FLAG_TAMP2F) == 0U)
 1348              		.loc 1 811 3 is_stmt 1 view .LVU425
 1349              	.L88:
 1350              		.loc 1 811 10 is_stmt 0 view .LVU426
 1351 000c 2368     		ldr	r3, [r4]
 1352 000e DA68     		ldr	r2, [r3, #12]
 1353              		.loc 1 811 9 view .LVU427
 1354 0010 12F4804F 		tst	r2, #16384
 1355 0014 0BD1     		bne	.L93
 812:Drivers/STM32F3xx_HAL_Driver/Src/stm32f3xx_hal_rtc_ex.c ****   {
 813:Drivers/STM32F3xx_HAL_Driver/Src/stm32f3xx_hal_rtc_ex.c ****     if (Timeout != HAL_MAX_DELAY)
 1356              		.loc 1 813 5 is_stmt 1 view .LVU428
 1357              		.loc 1 813 8 is_stmt 0 view .LVU429
 1358 0016 B5F1FF3F 		cmp	r5, #-1
 1359 001a F7D0     		beq	.L88
 814:Drivers/STM32F3xx_HAL_Driver/Src/stm32f3xx_hal_rtc_ex.c ****     {
 815:Drivers/STM32F3xx_HAL_Driver/Src/stm32f3xx_hal_rtc_ex.c ****       if ((Timeout == 0U) || ((HAL_GetTick() - tickstart) > Timeout))
 1360              		.loc 1 815 7 is_stmt 1 view .LVU430
 1361              		.loc 1 815 10 is_stmt 0 view .LVU431
 1362 001c 25B1     		cbz	r5, .L89
 1363              		.loc 1 815 32 discriminator 1 view .LVU432
 1364 001e FFF7FEFF 		bl	HAL_GetTick
 1365              	.LVL103:
 1366              		.loc 1 815 46 discriminator 1 view .LVU433
 1367 0022 801B     		subs	r0, r0, r6
 1368              		.loc 1 815 27 discriminator 1 view .LVU434
 1369 0024 A842     		cmp	r0, r5
 1370 0026 F1D9     		bls	.L88
 1371              	.L89:
 816:Drivers/STM32F3xx_HAL_Driver/Src/stm32f3xx_hal_rtc_ex.c ****       {
 817:Drivers/STM32F3xx_HAL_Driver/Src/stm32f3xx_hal_rtc_ex.c ****         hrtc->State = HAL_RTC_STATE_TIMEOUT;
 1372              		.loc 1 817 9 is_stmt 1 view .LVU435
 1373              		.loc 1 817 21 is_stmt 0 view .LVU436
 1374 0028 0320     		movs	r0, #3
 1375 002a 6077     		strb	r0, [r4, #29]
 818:Drivers/STM32F3xx_HAL_Driver/Src/stm32f3xx_hal_rtc_ex.c ****         return HAL_TIMEOUT;
 1376              		.loc 1 818 9 is_stmt 1 view .LVU437
 1377              		.loc 1 818 16 is_stmt 0 view .LVU438
 1378 002c 07E0     		b	.L90
 1379              	.L93:
 819:Drivers/STM32F3xx_HAL_Driver/Src/stm32f3xx_hal_rtc_ex.c ****       }
 820:Drivers/STM32F3xx_HAL_Driver/Src/stm32f3xx_hal_rtc_ex.c ****     }
 821:Drivers/STM32F3xx_HAL_Driver/Src/stm32f3xx_hal_rtc_ex.c ****   }
 822:Drivers/STM32F3xx_HAL_Driver/Src/stm32f3xx_hal_rtc_ex.c **** 
 823:Drivers/STM32F3xx_HAL_Driver/Src/stm32f3xx_hal_rtc_ex.c ****   /* Clear the Tamper Flag */
 824:Drivers/STM32F3xx_HAL_Driver/Src/stm32f3xx_hal_rtc_ex.c ****   __HAL_RTC_TAMPER_CLEAR_FLAG(hrtc, RTC_FLAG_TAMP2F);
 1380              		.loc 1 824 3 is_stmt 1 view .LVU439
 1381 002e DA68     		ldr	r2, [r3, #12]
ARM GAS  /tmp/ccpBOonR.s 			page 41


 1382 0030 D2B2     		uxtb	r2, r2
 1383 0032 62F48142 		orn	r2, r2, #16512
 1384 0036 DA60     		str	r2, [r3, #12]
 825:Drivers/STM32F3xx_HAL_Driver/Src/stm32f3xx_hal_rtc_ex.c **** 
 826:Drivers/STM32F3xx_HAL_Driver/Src/stm32f3xx_hal_rtc_ex.c ****   /* Change RTC state */
 827:Drivers/STM32F3xx_HAL_Driver/Src/stm32f3xx_hal_rtc_ex.c ****   hrtc->State = HAL_RTC_STATE_READY;
 1385              		.loc 1 827 3 view .LVU440
 1386              		.loc 1 827 15 is_stmt 0 view .LVU441
 1387 0038 0123     		movs	r3, #1
 1388 003a 6377     		strb	r3, [r4, #29]
 828:Drivers/STM32F3xx_HAL_Driver/Src/stm32f3xx_hal_rtc_ex.c **** 
 829:Drivers/STM32F3xx_HAL_Driver/Src/stm32f3xx_hal_rtc_ex.c ****   return HAL_OK;
 1389              		.loc 1 829 3 is_stmt 1 view .LVU442
 1390              		.loc 1 829 10 is_stmt 0 view .LVU443
 1391 003c 0020     		movs	r0, #0
 1392              	.L90:
 830:Drivers/STM32F3xx_HAL_Driver/Src/stm32f3xx_hal_rtc_ex.c **** }
 1393              		.loc 1 830 1 view .LVU444
 1394 003e 70BD     		pop	{r4, r5, r6, pc}
 1395              		.loc 1 830 1 view .LVU445
 1396              		.cfi_endproc
 1397              	.LFE144:
 1399              		.section	.text.HAL_RTCEx_PollForTamper3Event,"ax",%progbits
 1400              		.align	1
 1401              		.global	HAL_RTCEx_PollForTamper3Event
 1402              		.syntax unified
 1403              		.thumb
 1404              		.thumb_func
 1405              		.fpu fpv4-sp-d16
 1407              	HAL_RTCEx_PollForTamper3Event:
 1408              	.LVL104:
 1409              	.LFB145:
 831:Drivers/STM32F3xx_HAL_Driver/Src/stm32f3xx_hal_rtc_ex.c **** 
 832:Drivers/STM32F3xx_HAL_Driver/Src/stm32f3xx_hal_rtc_ex.c **** #if defined(RTC_TAMPER3_SUPPORT)
 833:Drivers/STM32F3xx_HAL_Driver/Src/stm32f3xx_hal_rtc_ex.c **** /**
 834:Drivers/STM32F3xx_HAL_Driver/Src/stm32f3xx_hal_rtc_ex.c ****   * @brief  Handles Tamper 3 Polling.
 835:Drivers/STM32F3xx_HAL_Driver/Src/stm32f3xx_hal_rtc_ex.c ****   * @param  hrtc pointer to a RTC_HandleTypeDef structure that contains
 836:Drivers/STM32F3xx_HAL_Driver/Src/stm32f3xx_hal_rtc_ex.c ****   *                the configuration information for RTC.
 837:Drivers/STM32F3xx_HAL_Driver/Src/stm32f3xx_hal_rtc_ex.c ****   * @param  Timeout Timeout duration
 838:Drivers/STM32F3xx_HAL_Driver/Src/stm32f3xx_hal_rtc_ex.c ****   * @retval HAL status
 839:Drivers/STM32F3xx_HAL_Driver/Src/stm32f3xx_hal_rtc_ex.c ****   */
 840:Drivers/STM32F3xx_HAL_Driver/Src/stm32f3xx_hal_rtc_ex.c **** HAL_StatusTypeDef HAL_RTCEx_PollForTamper3Event(RTC_HandleTypeDef *hrtc, uint32_t Timeout)
 841:Drivers/STM32F3xx_HAL_Driver/Src/stm32f3xx_hal_rtc_ex.c **** {
 1410              		.loc 1 841 1 is_stmt 1 view -0
 1411              		.cfi_startproc
 1412              		@ args = 0, pretend = 0, frame = 0
 1413              		@ frame_needed = 0, uses_anonymous_args = 0
 1414              		.loc 1 841 1 is_stmt 0 view .LVU447
 1415 0000 70B5     		push	{r4, r5, r6, lr}
 1416              	.LCFI19:
 1417              		.cfi_def_cfa_offset 16
 1418              		.cfi_offset 4, -16
 1419              		.cfi_offset 5, -12
 1420              		.cfi_offset 6, -8
 1421              		.cfi_offset 14, -4
 1422 0002 0446     		mov	r4, r0
 1423 0004 0D46     		mov	r5, r1
ARM GAS  /tmp/ccpBOonR.s 			page 42


 842:Drivers/STM32F3xx_HAL_Driver/Src/stm32f3xx_hal_rtc_ex.c ****   uint32_t tickstart = HAL_GetTick();
 1424              		.loc 1 842 3 is_stmt 1 view .LVU448
 1425              		.loc 1 842 24 is_stmt 0 view .LVU449
 1426 0006 FFF7FEFF 		bl	HAL_GetTick
 1427              	.LVL105:
 1428              		.loc 1 842 24 view .LVU450
 1429 000a 0646     		mov	r6, r0
 1430              	.LVL106:
 843:Drivers/STM32F3xx_HAL_Driver/Src/stm32f3xx_hal_rtc_ex.c **** 
 844:Drivers/STM32F3xx_HAL_Driver/Src/stm32f3xx_hal_rtc_ex.c ****   /* Get the status of the Interrupt */
 845:Drivers/STM32F3xx_HAL_Driver/Src/stm32f3xx_hal_rtc_ex.c ****   while (__HAL_RTC_TAMPER_GET_FLAG(hrtc, RTC_FLAG_TAMP3F) == 0U)
 1431              		.loc 1 845 3 is_stmt 1 view .LVU451
 1432              	.L96:
 1433              		.loc 1 845 10 is_stmt 0 view .LVU452
 1434 000c 2368     		ldr	r3, [r4]
 1435 000e DA68     		ldr	r2, [r3, #12]
 1436              		.loc 1 845 9 view .LVU453
 1437 0010 12F4004F 		tst	r2, #32768
 1438 0014 0BD1     		bne	.L101
 846:Drivers/STM32F3xx_HAL_Driver/Src/stm32f3xx_hal_rtc_ex.c ****   {
 847:Drivers/STM32F3xx_HAL_Driver/Src/stm32f3xx_hal_rtc_ex.c ****     if (Timeout != HAL_MAX_DELAY)
 1439              		.loc 1 847 5 is_stmt 1 view .LVU454
 1440              		.loc 1 847 8 is_stmt 0 view .LVU455
 1441 0016 B5F1FF3F 		cmp	r5, #-1
 1442 001a F7D0     		beq	.L96
 848:Drivers/STM32F3xx_HAL_Driver/Src/stm32f3xx_hal_rtc_ex.c ****     {
 849:Drivers/STM32F3xx_HAL_Driver/Src/stm32f3xx_hal_rtc_ex.c ****       if ((Timeout == 0U) || ((HAL_GetTick() - tickstart) > Timeout))
 1443              		.loc 1 849 7 is_stmt 1 view .LVU456
 1444              		.loc 1 849 10 is_stmt 0 view .LVU457
 1445 001c 25B1     		cbz	r5, .L97
 1446              		.loc 1 849 32 discriminator 1 view .LVU458
 1447 001e FFF7FEFF 		bl	HAL_GetTick
 1448              	.LVL107:
 1449              		.loc 1 849 46 discriminator 1 view .LVU459
 1450 0022 801B     		subs	r0, r0, r6
 1451              		.loc 1 849 27 discriminator 1 view .LVU460
 1452 0024 A842     		cmp	r0, r5
 1453 0026 F1D9     		bls	.L96
 1454              	.L97:
 850:Drivers/STM32F3xx_HAL_Driver/Src/stm32f3xx_hal_rtc_ex.c ****       {
 851:Drivers/STM32F3xx_HAL_Driver/Src/stm32f3xx_hal_rtc_ex.c ****         hrtc->State = HAL_RTC_STATE_TIMEOUT;
 1455              		.loc 1 851 9 is_stmt 1 view .LVU461
 1456              		.loc 1 851 21 is_stmt 0 view .LVU462
 1457 0028 0320     		movs	r0, #3
 1458 002a 6077     		strb	r0, [r4, #29]
 852:Drivers/STM32F3xx_HAL_Driver/Src/stm32f3xx_hal_rtc_ex.c ****         return HAL_TIMEOUT;
 1459              		.loc 1 852 9 is_stmt 1 view .LVU463
 1460              		.loc 1 852 16 is_stmt 0 view .LVU464
 1461 002c 0DE0     		b	.L98
 1462              	.L101:
 853:Drivers/STM32F3xx_HAL_Driver/Src/stm32f3xx_hal_rtc_ex.c ****       }
 854:Drivers/STM32F3xx_HAL_Driver/Src/stm32f3xx_hal_rtc_ex.c ****     }
 855:Drivers/STM32F3xx_HAL_Driver/Src/stm32f3xx_hal_rtc_ex.c ****   }
 856:Drivers/STM32F3xx_HAL_Driver/Src/stm32f3xx_hal_rtc_ex.c **** 
 857:Drivers/STM32F3xx_HAL_Driver/Src/stm32f3xx_hal_rtc_ex.c ****   /* Clear the Tamper Flag */
 858:Drivers/STM32F3xx_HAL_Driver/Src/stm32f3xx_hal_rtc_ex.c ****   __HAL_RTC_TAMPER_CLEAR_FLAG(hrtc, RTC_FLAG_TAMP3F);
 1463              		.loc 1 858 3 is_stmt 1 view .LVU465
ARM GAS  /tmp/ccpBOonR.s 			page 43


 1464 002e DA68     		ldr	r2, [r3, #12]
 1465 0030 D2B2     		uxtb	r2, r2
 1466 0032 42F07F42 		orr	r2, r2, #-16777216
 1467 0036 42F47F02 		orr	r2, r2, #16711680
 1468 003a 42F4FE42 		orr	r2, r2, #32512
 1469 003e 42F07F02 		orr	r2, r2, #127
 1470 0042 DA60     		str	r2, [r3, #12]
 859:Drivers/STM32F3xx_HAL_Driver/Src/stm32f3xx_hal_rtc_ex.c **** 
 860:Drivers/STM32F3xx_HAL_Driver/Src/stm32f3xx_hal_rtc_ex.c ****   /* Change RTC state */
 861:Drivers/STM32F3xx_HAL_Driver/Src/stm32f3xx_hal_rtc_ex.c ****   hrtc->State = HAL_RTC_STATE_READY;
 1471              		.loc 1 861 3 view .LVU466
 1472              		.loc 1 861 15 is_stmt 0 view .LVU467
 1473 0044 0123     		movs	r3, #1
 1474 0046 6377     		strb	r3, [r4, #29]
 862:Drivers/STM32F3xx_HAL_Driver/Src/stm32f3xx_hal_rtc_ex.c **** 
 863:Drivers/STM32F3xx_HAL_Driver/Src/stm32f3xx_hal_rtc_ex.c ****   return HAL_OK;
 1475              		.loc 1 863 3 is_stmt 1 view .LVU468
 1476              		.loc 1 863 10 is_stmt 0 view .LVU469
 1477 0048 0020     		movs	r0, #0
 1478              	.L98:
 864:Drivers/STM32F3xx_HAL_Driver/Src/stm32f3xx_hal_rtc_ex.c **** }
 1479              		.loc 1 864 1 view .LVU470
 1480 004a 70BD     		pop	{r4, r5, r6, pc}
 1481              		.loc 1 864 1 view .LVU471
 1482              		.cfi_endproc
 1483              	.LFE145:
 1485              		.section	.text.HAL_RTCEx_SetWakeUpTimer,"ax",%progbits
 1486              		.align	1
 1487              		.global	HAL_RTCEx_SetWakeUpTimer
 1488              		.syntax unified
 1489              		.thumb
 1490              		.thumb_func
 1491              		.fpu fpv4-sp-d16
 1493              	HAL_RTCEx_SetWakeUpTimer:
 1494              	.LVL108:
 1495              	.LFB146:
 865:Drivers/STM32F3xx_HAL_Driver/Src/stm32f3xx_hal_rtc_ex.c **** #endif /* RTC_TAMPER3_SUPPORT */
 866:Drivers/STM32F3xx_HAL_Driver/Src/stm32f3xx_hal_rtc_ex.c **** 
 867:Drivers/STM32F3xx_HAL_Driver/Src/stm32f3xx_hal_rtc_ex.c **** /**
 868:Drivers/STM32F3xx_HAL_Driver/Src/stm32f3xx_hal_rtc_ex.c ****   * @}
 869:Drivers/STM32F3xx_HAL_Driver/Src/stm32f3xx_hal_rtc_ex.c ****   */
 870:Drivers/STM32F3xx_HAL_Driver/Src/stm32f3xx_hal_rtc_ex.c **** 
 871:Drivers/STM32F3xx_HAL_Driver/Src/stm32f3xx_hal_rtc_ex.c **** /** @defgroup RTCEx_Exported_Functions_Group2 RTC Wakeup functions
 872:Drivers/STM32F3xx_HAL_Driver/Src/stm32f3xx_hal_rtc_ex.c ****   * @brief    RTC Wakeup functions
 873:Drivers/STM32F3xx_HAL_Driver/Src/stm32f3xx_hal_rtc_ex.c ****   *
 874:Drivers/STM32F3xx_HAL_Driver/Src/stm32f3xx_hal_rtc_ex.c **** @verbatim
 875:Drivers/STM32F3xx_HAL_Driver/Src/stm32f3xx_hal_rtc_ex.c ****  ===============================================================================
 876:Drivers/STM32F3xx_HAL_Driver/Src/stm32f3xx_hal_rtc_ex.c ****                         ##### RTC Wakeup functions #####
 877:Drivers/STM32F3xx_HAL_Driver/Src/stm32f3xx_hal_rtc_ex.c ****  ===============================================================================
 878:Drivers/STM32F3xx_HAL_Driver/Src/stm32f3xx_hal_rtc_ex.c **** 
 879:Drivers/STM32F3xx_HAL_Driver/Src/stm32f3xx_hal_rtc_ex.c ****  [..] This section provides functions allowing to configure Wakeup feature
 880:Drivers/STM32F3xx_HAL_Driver/Src/stm32f3xx_hal_rtc_ex.c **** 
 881:Drivers/STM32F3xx_HAL_Driver/Src/stm32f3xx_hal_rtc_ex.c **** @endverbatim
 882:Drivers/STM32F3xx_HAL_Driver/Src/stm32f3xx_hal_rtc_ex.c ****   * @{
 883:Drivers/STM32F3xx_HAL_Driver/Src/stm32f3xx_hal_rtc_ex.c ****   */
 884:Drivers/STM32F3xx_HAL_Driver/Src/stm32f3xx_hal_rtc_ex.c **** 
 885:Drivers/STM32F3xx_HAL_Driver/Src/stm32f3xx_hal_rtc_ex.c **** /**
ARM GAS  /tmp/ccpBOonR.s 			page 44


 886:Drivers/STM32F3xx_HAL_Driver/Src/stm32f3xx_hal_rtc_ex.c ****   * @brief  Sets wakeup timer.
 887:Drivers/STM32F3xx_HAL_Driver/Src/stm32f3xx_hal_rtc_ex.c ****   * @param  hrtc pointer to a RTC_HandleTypeDef structure that contains
 888:Drivers/STM32F3xx_HAL_Driver/Src/stm32f3xx_hal_rtc_ex.c ****   *                the configuration information for RTC.
 889:Drivers/STM32F3xx_HAL_Driver/Src/stm32f3xx_hal_rtc_ex.c ****   * @param  WakeUpCounter Wakeup counter
 890:Drivers/STM32F3xx_HAL_Driver/Src/stm32f3xx_hal_rtc_ex.c ****   * @param  WakeUpClock Wakeup clock
 891:Drivers/STM32F3xx_HAL_Driver/Src/stm32f3xx_hal_rtc_ex.c ****   * @retval HAL status
 892:Drivers/STM32F3xx_HAL_Driver/Src/stm32f3xx_hal_rtc_ex.c ****   */
 893:Drivers/STM32F3xx_HAL_Driver/Src/stm32f3xx_hal_rtc_ex.c **** HAL_StatusTypeDef HAL_RTCEx_SetWakeUpTimer(RTC_HandleTypeDef *hrtc, uint32_t WakeUpCounter, uint32_
 894:Drivers/STM32F3xx_HAL_Driver/Src/stm32f3xx_hal_rtc_ex.c **** {
 1496              		.loc 1 894 1 is_stmt 1 view -0
 1497              		.cfi_startproc
 1498              		@ args = 0, pretend = 0, frame = 0
 1499              		@ frame_needed = 0, uses_anonymous_args = 0
 1500              		.loc 1 894 1 is_stmt 0 view .LVU473
 1501 0000 F8B5     		push	{r3, r4, r5, r6, r7, lr}
 1502              	.LCFI20:
 1503              		.cfi_def_cfa_offset 24
 1504              		.cfi_offset 3, -24
 1505              		.cfi_offset 4, -20
 1506              		.cfi_offset 5, -16
 1507              		.cfi_offset 6, -12
 1508              		.cfi_offset 7, -8
 1509              		.cfi_offset 14, -4
 895:Drivers/STM32F3xx_HAL_Driver/Src/stm32f3xx_hal_rtc_ex.c ****   uint32_t tickstart = 0U;
 1510              		.loc 1 895 3 is_stmt 1 view .LVU474
 1511              	.LVL109:
 896:Drivers/STM32F3xx_HAL_Driver/Src/stm32f3xx_hal_rtc_ex.c **** 
 897:Drivers/STM32F3xx_HAL_Driver/Src/stm32f3xx_hal_rtc_ex.c ****   /* Check the parameters */
 898:Drivers/STM32F3xx_HAL_Driver/Src/stm32f3xx_hal_rtc_ex.c ****   assert_param(IS_RTC_WAKEUP_CLOCK(WakeUpClock));
 1512              		.loc 1 898 3 view .LVU475
 899:Drivers/STM32F3xx_HAL_Driver/Src/stm32f3xx_hal_rtc_ex.c ****   assert_param(IS_RTC_WAKEUP_COUNTER(WakeUpCounter));
 1513              		.loc 1 899 3 view .LVU476
 900:Drivers/STM32F3xx_HAL_Driver/Src/stm32f3xx_hal_rtc_ex.c **** 
 901:Drivers/STM32F3xx_HAL_Driver/Src/stm32f3xx_hal_rtc_ex.c ****   /* Process Locked */
 902:Drivers/STM32F3xx_HAL_Driver/Src/stm32f3xx_hal_rtc_ex.c ****   __HAL_LOCK(hrtc);
 1514              		.loc 1 902 3 view .LVU477
 1515              		.loc 1 902 3 view .LVU478
 1516 0002 037F     		ldrb	r3, [r0, #28]	@ zero_extendqisi2
 1517 0004 012B     		cmp	r3, #1
 1518 0006 5FD0     		beq	.L109
 1519 0008 1646     		mov	r6, r2
 1520 000a 0D46     		mov	r5, r1
 1521 000c 0446     		mov	r4, r0
 1522              		.loc 1 902 3 discriminator 2 view .LVU479
 1523 000e 0123     		movs	r3, #1
 1524 0010 0377     		strb	r3, [r0, #28]
 903:Drivers/STM32F3xx_HAL_Driver/Src/stm32f3xx_hal_rtc_ex.c **** 
 904:Drivers/STM32F3xx_HAL_Driver/Src/stm32f3xx_hal_rtc_ex.c ****   hrtc->State = HAL_RTC_STATE_BUSY;
 1525              		.loc 1 904 3 discriminator 2 view .LVU480
 1526              		.loc 1 904 15 is_stmt 0 discriminator 2 view .LVU481
 1527 0012 0223     		movs	r3, #2
 1528 0014 4377     		strb	r3, [r0, #29]
 905:Drivers/STM32F3xx_HAL_Driver/Src/stm32f3xx_hal_rtc_ex.c **** 
 906:Drivers/STM32F3xx_HAL_Driver/Src/stm32f3xx_hal_rtc_ex.c ****   /* Disable the write protection for RTC registers */
 907:Drivers/STM32F3xx_HAL_Driver/Src/stm32f3xx_hal_rtc_ex.c ****   __HAL_RTC_WRITEPROTECTION_DISABLE(hrtc);
 1529              		.loc 1 907 3 is_stmt 1 discriminator 2 view .LVU482
 1530              		.loc 1 907 3 discriminator 2 view .LVU483
ARM GAS  /tmp/ccpBOonR.s 			page 45


 1531 0016 0368     		ldr	r3, [r0]
 1532 0018 CA22     		movs	r2, #202
 1533              	.LVL110:
 1534              		.loc 1 907 3 is_stmt 0 discriminator 2 view .LVU484
 1535 001a 5A62     		str	r2, [r3, #36]
 1536              		.loc 1 907 3 is_stmt 1 discriminator 2 view .LVU485
 1537 001c 0368     		ldr	r3, [r0]
 1538 001e 5322     		movs	r2, #83
 1539 0020 5A62     		str	r2, [r3, #36]
 908:Drivers/STM32F3xx_HAL_Driver/Src/stm32f3xx_hal_rtc_ex.c **** 
 909:Drivers/STM32F3xx_HAL_Driver/Src/stm32f3xx_hal_rtc_ex.c ****   /* Check RTC WUTWF flag is reset only when wakeup timer enabled*/
 910:Drivers/STM32F3xx_HAL_Driver/Src/stm32f3xx_hal_rtc_ex.c ****   if ((hrtc->Instance->CR & RTC_CR_WUTE) != 0U)
 1540              		.loc 1 910 3 discriminator 2 view .LVU486
 1541              		.loc 1 910 12 is_stmt 0 discriminator 2 view .LVU487
 1542 0022 0368     		ldr	r3, [r0]
 1543              		.loc 1 910 22 discriminator 2 view .LVU488
 1544 0024 9B68     		ldr	r3, [r3, #8]
 1545              		.loc 1 910 6 discriminator 2 view .LVU489
 1546 0026 13F4806F 		tst	r3, #1024
 1547 002a 15D0     		beq	.L104
 911:Drivers/STM32F3xx_HAL_Driver/Src/stm32f3xx_hal_rtc_ex.c ****   {
 912:Drivers/STM32F3xx_HAL_Driver/Src/stm32f3xx_hal_rtc_ex.c ****     tickstart = HAL_GetTick();
 1548              		.loc 1 912 5 is_stmt 1 view .LVU490
 1549              		.loc 1 912 17 is_stmt 0 view .LVU491
 1550 002c FFF7FEFF 		bl	HAL_GetTick
 1551              	.LVL111:
 1552              		.loc 1 912 17 view .LVU492
 1553 0030 0746     		mov	r7, r0
 1554              	.LVL112:
 913:Drivers/STM32F3xx_HAL_Driver/Src/stm32f3xx_hal_rtc_ex.c **** 
 914:Drivers/STM32F3xx_HAL_Driver/Src/stm32f3xx_hal_rtc_ex.c ****     /* Wait till RTC WUTWF flag is reset and if timeout is reached exit */
 915:Drivers/STM32F3xx_HAL_Driver/Src/stm32f3xx_hal_rtc_ex.c ****     while (__HAL_RTC_WAKEUPTIMER_GET_FLAG(hrtc, RTC_FLAG_WUTWF) != 0U)
 1555              		.loc 1 915 5 is_stmt 1 view .LVU493
 1556              	.L105:
 1557              		.loc 1 915 12 is_stmt 0 view .LVU494
 1558 0032 2368     		ldr	r3, [r4]
 1559 0034 DB68     		ldr	r3, [r3, #12]
 1560              		.loc 1 915 11 view .LVU495
 1561 0036 13F0040F 		tst	r3, #4
 1562 003a 0DD0     		beq	.L104
 916:Drivers/STM32F3xx_HAL_Driver/Src/stm32f3xx_hal_rtc_ex.c ****     {
 917:Drivers/STM32F3xx_HAL_Driver/Src/stm32f3xx_hal_rtc_ex.c ****       if ((HAL_GetTick() - tickstart) > RTC_TIMEOUT_VALUE)
 1563              		.loc 1 917 7 is_stmt 1 view .LVU496
 1564              		.loc 1 917 12 is_stmt 0 view .LVU497
 1565 003c FFF7FEFF 		bl	HAL_GetTick
 1566              	.LVL113:
 1567              		.loc 1 917 26 view .LVU498
 1568 0040 C01B     		subs	r0, r0, r7
 1569              		.loc 1 917 10 view .LVU499
 1570 0042 B0F57A7F 		cmp	r0, #1000
 1571 0046 F4D9     		bls	.L105
 918:Drivers/STM32F3xx_HAL_Driver/Src/stm32f3xx_hal_rtc_ex.c ****       {
 919:Drivers/STM32F3xx_HAL_Driver/Src/stm32f3xx_hal_rtc_ex.c ****         /* Enable the write protection for RTC registers */
 920:Drivers/STM32F3xx_HAL_Driver/Src/stm32f3xx_hal_rtc_ex.c ****         __HAL_RTC_WRITEPROTECTION_ENABLE(hrtc);
 1572              		.loc 1 920 9 is_stmt 1 view .LVU500
 1573              		.loc 1 920 9 view .LVU501
 1574 0048 2368     		ldr	r3, [r4]
ARM GAS  /tmp/ccpBOonR.s 			page 46


 1575 004a FF22     		movs	r2, #255
 1576 004c 5A62     		str	r2, [r3, #36]
 921:Drivers/STM32F3xx_HAL_Driver/Src/stm32f3xx_hal_rtc_ex.c **** 
 922:Drivers/STM32F3xx_HAL_Driver/Src/stm32f3xx_hal_rtc_ex.c ****         hrtc->State = HAL_RTC_STATE_TIMEOUT;
 1577              		.loc 1 922 9 view .LVU502
 1578              		.loc 1 922 21 is_stmt 0 view .LVU503
 1579 004e 0320     		movs	r0, #3
 1580 0050 6077     		strb	r0, [r4, #29]
 923:Drivers/STM32F3xx_HAL_Driver/Src/stm32f3xx_hal_rtc_ex.c **** 
 924:Drivers/STM32F3xx_HAL_Driver/Src/stm32f3xx_hal_rtc_ex.c ****         /* Process Unlocked */
 925:Drivers/STM32F3xx_HAL_Driver/Src/stm32f3xx_hal_rtc_ex.c ****         __HAL_UNLOCK(hrtc);
 1581              		.loc 1 925 9 is_stmt 1 view .LVU504
 1582              		.loc 1 925 9 view .LVU505
 1583 0052 0023     		movs	r3, #0
 1584 0054 2377     		strb	r3, [r4, #28]
 926:Drivers/STM32F3xx_HAL_Driver/Src/stm32f3xx_hal_rtc_ex.c **** 
 927:Drivers/STM32F3xx_HAL_Driver/Src/stm32f3xx_hal_rtc_ex.c ****         return HAL_TIMEOUT;
 1585              		.loc 1 927 9 view .LVU506
 1586              		.loc 1 927 16 is_stmt 0 view .LVU507
 1587 0056 36E0     		b	.L103
 1588              	.LVL114:
 1589              	.L104:
 928:Drivers/STM32F3xx_HAL_Driver/Src/stm32f3xx_hal_rtc_ex.c ****       }
 929:Drivers/STM32F3xx_HAL_Driver/Src/stm32f3xx_hal_rtc_ex.c ****     }
 930:Drivers/STM32F3xx_HAL_Driver/Src/stm32f3xx_hal_rtc_ex.c ****   }
 931:Drivers/STM32F3xx_HAL_Driver/Src/stm32f3xx_hal_rtc_ex.c **** 
 932:Drivers/STM32F3xx_HAL_Driver/Src/stm32f3xx_hal_rtc_ex.c ****   /* Disable the Wakeup timer */
 933:Drivers/STM32F3xx_HAL_Driver/Src/stm32f3xx_hal_rtc_ex.c ****   __HAL_RTC_WAKEUPTIMER_DISABLE(hrtc);
 1590              		.loc 1 933 3 is_stmt 1 view .LVU508
 1591 0058 2268     		ldr	r2, [r4]
 1592 005a 9368     		ldr	r3, [r2, #8]
 1593 005c 23F48063 		bic	r3, r3, #1024
 1594 0060 9360     		str	r3, [r2, #8]
 934:Drivers/STM32F3xx_HAL_Driver/Src/stm32f3xx_hal_rtc_ex.c **** 
 935:Drivers/STM32F3xx_HAL_Driver/Src/stm32f3xx_hal_rtc_ex.c ****   /* Clear the Wakeup flag */
 936:Drivers/STM32F3xx_HAL_Driver/Src/stm32f3xx_hal_rtc_ex.c ****   __HAL_RTC_WAKEUPTIMER_CLEAR_FLAG(hrtc, RTC_FLAG_WUTF);
 1595              		.loc 1 936 3 view .LVU509
 1596 0062 2268     		ldr	r2, [r4]
 1597 0064 D368     		ldr	r3, [r2, #12]
 1598 0066 DBB2     		uxtb	r3, r3
 1599 0068 63F49063 		orn	r3, r3, #1152
 1600 006c D360     		str	r3, [r2, #12]
 937:Drivers/STM32F3xx_HAL_Driver/Src/stm32f3xx_hal_rtc_ex.c **** 
 938:Drivers/STM32F3xx_HAL_Driver/Src/stm32f3xx_hal_rtc_ex.c ****   /* Get tick */
 939:Drivers/STM32F3xx_HAL_Driver/Src/stm32f3xx_hal_rtc_ex.c ****   tickstart = HAL_GetTick();
 1601              		.loc 1 939 3 view .LVU510
 1602              		.loc 1 939 15 is_stmt 0 view .LVU511
 1603 006e FFF7FEFF 		bl	HAL_GetTick
 1604              	.LVL115:
 1605 0072 0746     		mov	r7, r0
 1606              	.LVL116:
 940:Drivers/STM32F3xx_HAL_Driver/Src/stm32f3xx_hal_rtc_ex.c **** 
 941:Drivers/STM32F3xx_HAL_Driver/Src/stm32f3xx_hal_rtc_ex.c ****   /* Wait till RTC WUTWF flag is set and if timeout is reached exit */
 942:Drivers/STM32F3xx_HAL_Driver/Src/stm32f3xx_hal_rtc_ex.c ****   while (__HAL_RTC_WAKEUPTIMER_GET_FLAG(hrtc, RTC_FLAG_WUTWF) == 0U)
 1607              		.loc 1 942 3 is_stmt 1 view .LVU512
 1608              	.L107:
 1609              		.loc 1 942 10 is_stmt 0 view .LVU513
ARM GAS  /tmp/ccpBOonR.s 			page 47


 1610 0074 2368     		ldr	r3, [r4]
 1611 0076 D868     		ldr	r0, [r3, #12]
 1612              		.loc 1 942 9 view .LVU514
 1613 0078 10F0040F 		tst	r0, #4
 1614 007c 0DD1     		bne	.L111
 943:Drivers/STM32F3xx_HAL_Driver/Src/stm32f3xx_hal_rtc_ex.c ****   {
 944:Drivers/STM32F3xx_HAL_Driver/Src/stm32f3xx_hal_rtc_ex.c ****     if ((HAL_GetTick() - tickstart) > RTC_TIMEOUT_VALUE)
 1615              		.loc 1 944 5 is_stmt 1 view .LVU515
 1616              		.loc 1 944 10 is_stmt 0 view .LVU516
 1617 007e FFF7FEFF 		bl	HAL_GetTick
 1618              	.LVL117:
 1619              		.loc 1 944 24 view .LVU517
 1620 0082 C01B     		subs	r0, r0, r7
 1621              		.loc 1 944 8 view .LVU518
 1622 0084 B0F57A7F 		cmp	r0, #1000
 1623 0088 F4D9     		bls	.L107
 945:Drivers/STM32F3xx_HAL_Driver/Src/stm32f3xx_hal_rtc_ex.c ****     {
 946:Drivers/STM32F3xx_HAL_Driver/Src/stm32f3xx_hal_rtc_ex.c ****       /* Enable the write protection for RTC registers */
 947:Drivers/STM32F3xx_HAL_Driver/Src/stm32f3xx_hal_rtc_ex.c ****       __HAL_RTC_WRITEPROTECTION_ENABLE(hrtc);
 1624              		.loc 1 947 7 is_stmt 1 view .LVU519
 1625              		.loc 1 947 7 view .LVU520
 1626 008a 2368     		ldr	r3, [r4]
 1627 008c FF22     		movs	r2, #255
 1628 008e 5A62     		str	r2, [r3, #36]
 948:Drivers/STM32F3xx_HAL_Driver/Src/stm32f3xx_hal_rtc_ex.c **** 
 949:Drivers/STM32F3xx_HAL_Driver/Src/stm32f3xx_hal_rtc_ex.c ****       hrtc->State = HAL_RTC_STATE_TIMEOUT;
 1629              		.loc 1 949 7 view .LVU521
 1630              		.loc 1 949 19 is_stmt 0 view .LVU522
 1631 0090 0320     		movs	r0, #3
 1632 0092 6077     		strb	r0, [r4, #29]
 950:Drivers/STM32F3xx_HAL_Driver/Src/stm32f3xx_hal_rtc_ex.c **** 
 951:Drivers/STM32F3xx_HAL_Driver/Src/stm32f3xx_hal_rtc_ex.c ****       /* Process Unlocked */
 952:Drivers/STM32F3xx_HAL_Driver/Src/stm32f3xx_hal_rtc_ex.c ****       __HAL_UNLOCK(hrtc);
 1633              		.loc 1 952 7 is_stmt 1 view .LVU523
 1634              		.loc 1 952 7 view .LVU524
 1635 0094 0023     		movs	r3, #0
 1636 0096 2377     		strb	r3, [r4, #28]
 953:Drivers/STM32F3xx_HAL_Driver/Src/stm32f3xx_hal_rtc_ex.c **** 
 954:Drivers/STM32F3xx_HAL_Driver/Src/stm32f3xx_hal_rtc_ex.c ****       return HAL_TIMEOUT;
 1637              		.loc 1 954 7 view .LVU525
 1638              		.loc 1 954 14 is_stmt 0 view .LVU526
 1639 0098 15E0     		b	.L103
 1640              	.L111:
 955:Drivers/STM32F3xx_HAL_Driver/Src/stm32f3xx_hal_rtc_ex.c ****     }
 956:Drivers/STM32F3xx_HAL_Driver/Src/stm32f3xx_hal_rtc_ex.c ****   }
 957:Drivers/STM32F3xx_HAL_Driver/Src/stm32f3xx_hal_rtc_ex.c **** 
 958:Drivers/STM32F3xx_HAL_Driver/Src/stm32f3xx_hal_rtc_ex.c ****   /* Clear the Wakeup Timer clock source bits in CR register */
 959:Drivers/STM32F3xx_HAL_Driver/Src/stm32f3xx_hal_rtc_ex.c ****   hrtc->Instance->CR &= (uint32_t)~RTC_CR_WUCKSEL;
 1641              		.loc 1 959 3 is_stmt 1 view .LVU527
 1642              		.loc 1 959 22 is_stmt 0 view .LVU528
 1643 009a 9A68     		ldr	r2, [r3, #8]
 1644 009c 22F00702 		bic	r2, r2, #7
 1645 00a0 9A60     		str	r2, [r3, #8]
 960:Drivers/STM32F3xx_HAL_Driver/Src/stm32f3xx_hal_rtc_ex.c **** 
 961:Drivers/STM32F3xx_HAL_Driver/Src/stm32f3xx_hal_rtc_ex.c ****   /* Configure the clock source */
 962:Drivers/STM32F3xx_HAL_Driver/Src/stm32f3xx_hal_rtc_ex.c ****   hrtc->Instance->CR |= (uint32_t)WakeUpClock;
 1646              		.loc 1 962 3 is_stmt 1 view .LVU529
ARM GAS  /tmp/ccpBOonR.s 			page 48


 1647              		.loc 1 962 7 is_stmt 0 view .LVU530
 1648 00a2 2268     		ldr	r2, [r4]
 1649              		.loc 1 962 22 view .LVU531
 1650 00a4 9368     		ldr	r3, [r2, #8]
 1651 00a6 1E43     		orrs	r6, r6, r3
 1652              	.LVL118:
 1653              		.loc 1 962 22 view .LVU532
 1654 00a8 9660     		str	r6, [r2, #8]
 963:Drivers/STM32F3xx_HAL_Driver/Src/stm32f3xx_hal_rtc_ex.c **** 
 964:Drivers/STM32F3xx_HAL_Driver/Src/stm32f3xx_hal_rtc_ex.c ****   /* Configure the Wakeup Timer counter */
 965:Drivers/STM32F3xx_HAL_Driver/Src/stm32f3xx_hal_rtc_ex.c ****   hrtc->Instance->WUTR = (uint32_t)WakeUpCounter;
 1655              		.loc 1 965 3 is_stmt 1 view .LVU533
 1656              		.loc 1 965 7 is_stmt 0 view .LVU534
 1657 00aa 2368     		ldr	r3, [r4]
 1658              		.loc 1 965 24 view .LVU535
 1659 00ac 5D61     		str	r5, [r3, #20]
 966:Drivers/STM32F3xx_HAL_Driver/Src/stm32f3xx_hal_rtc_ex.c **** 
 967:Drivers/STM32F3xx_HAL_Driver/Src/stm32f3xx_hal_rtc_ex.c ****   /* Enable the Wakeup Timer */
 968:Drivers/STM32F3xx_HAL_Driver/Src/stm32f3xx_hal_rtc_ex.c ****   __HAL_RTC_WAKEUPTIMER_ENABLE(hrtc);
 1660              		.loc 1 968 3 is_stmt 1 view .LVU536
 1661 00ae 2268     		ldr	r2, [r4]
 1662 00b0 9368     		ldr	r3, [r2, #8]
 1663 00b2 43F48063 		orr	r3, r3, #1024
 1664 00b6 9360     		str	r3, [r2, #8]
 969:Drivers/STM32F3xx_HAL_Driver/Src/stm32f3xx_hal_rtc_ex.c **** 
 970:Drivers/STM32F3xx_HAL_Driver/Src/stm32f3xx_hal_rtc_ex.c ****   /* Enable the write protection for RTC registers */
 971:Drivers/STM32F3xx_HAL_Driver/Src/stm32f3xx_hal_rtc_ex.c ****   __HAL_RTC_WRITEPROTECTION_ENABLE(hrtc);
 1665              		.loc 1 971 3 view .LVU537
 1666              		.loc 1 971 3 view .LVU538
 1667 00b8 2368     		ldr	r3, [r4]
 1668 00ba FF22     		movs	r2, #255
 1669 00bc 5A62     		str	r2, [r3, #36]
 972:Drivers/STM32F3xx_HAL_Driver/Src/stm32f3xx_hal_rtc_ex.c **** 
 973:Drivers/STM32F3xx_HAL_Driver/Src/stm32f3xx_hal_rtc_ex.c ****   hrtc->State = HAL_RTC_STATE_READY;
 1670              		.loc 1 973 3 view .LVU539
 1671              		.loc 1 973 15 is_stmt 0 view .LVU540
 1672 00be 0123     		movs	r3, #1
 1673 00c0 6377     		strb	r3, [r4, #29]
 974:Drivers/STM32F3xx_HAL_Driver/Src/stm32f3xx_hal_rtc_ex.c **** 
 975:Drivers/STM32F3xx_HAL_Driver/Src/stm32f3xx_hal_rtc_ex.c ****   /* Process Unlocked */
 976:Drivers/STM32F3xx_HAL_Driver/Src/stm32f3xx_hal_rtc_ex.c ****   __HAL_UNLOCK(hrtc);
 1674              		.loc 1 976 3 is_stmt 1 view .LVU541
 1675              		.loc 1 976 3 view .LVU542
 1676 00c2 0020     		movs	r0, #0
 1677 00c4 2077     		strb	r0, [r4, #28]
 977:Drivers/STM32F3xx_HAL_Driver/Src/stm32f3xx_hal_rtc_ex.c **** 
 978:Drivers/STM32F3xx_HAL_Driver/Src/stm32f3xx_hal_rtc_ex.c ****   return HAL_OK;
 1678              		.loc 1 978 3 view .LVU543
 1679              	.LVL119:
 1680              	.L103:
 979:Drivers/STM32F3xx_HAL_Driver/Src/stm32f3xx_hal_rtc_ex.c **** }
 1681              		.loc 1 979 1 is_stmt 0 view .LVU544
 1682 00c6 F8BD     		pop	{r3, r4, r5, r6, r7, pc}
 1683              	.LVL120:
 1684              	.L109:
 902:Drivers/STM32F3xx_HAL_Driver/Src/stm32f3xx_hal_rtc_ex.c **** 
 1685              		.loc 1 902 3 view .LVU545
ARM GAS  /tmp/ccpBOonR.s 			page 49


 1686 00c8 0220     		movs	r0, #2
 1687              	.LVL121:
 902:Drivers/STM32F3xx_HAL_Driver/Src/stm32f3xx_hal_rtc_ex.c **** 
 1688              		.loc 1 902 3 view .LVU546
 1689 00ca FCE7     		b	.L103
 1690              		.cfi_endproc
 1691              	.LFE146:
 1693              		.section	.text.HAL_RTCEx_SetWakeUpTimer_IT,"ax",%progbits
 1694              		.align	1
 1695              		.global	HAL_RTCEx_SetWakeUpTimer_IT
 1696              		.syntax unified
 1697              		.thumb
 1698              		.thumb_func
 1699              		.fpu fpv4-sp-d16
 1701              	HAL_RTCEx_SetWakeUpTimer_IT:
 1702              	.LVL122:
 1703              	.LFB147:
 980:Drivers/STM32F3xx_HAL_Driver/Src/stm32f3xx_hal_rtc_ex.c **** 
 981:Drivers/STM32F3xx_HAL_Driver/Src/stm32f3xx_hal_rtc_ex.c **** /**
 982:Drivers/STM32F3xx_HAL_Driver/Src/stm32f3xx_hal_rtc_ex.c ****   * @brief  Sets wakeup timer with interrupt.
 983:Drivers/STM32F3xx_HAL_Driver/Src/stm32f3xx_hal_rtc_ex.c ****   * @param  hrtc pointer to a RTC_HandleTypeDef structure that contains
 984:Drivers/STM32F3xx_HAL_Driver/Src/stm32f3xx_hal_rtc_ex.c ****   *                the configuration information for RTC.
 985:Drivers/STM32F3xx_HAL_Driver/Src/stm32f3xx_hal_rtc_ex.c ****   * @param  WakeUpCounter Wakeup counter
 986:Drivers/STM32F3xx_HAL_Driver/Src/stm32f3xx_hal_rtc_ex.c ****   * @param  WakeUpClock Wakeup clock
 987:Drivers/STM32F3xx_HAL_Driver/Src/stm32f3xx_hal_rtc_ex.c ****   * @retval HAL status
 988:Drivers/STM32F3xx_HAL_Driver/Src/stm32f3xx_hal_rtc_ex.c ****   */
 989:Drivers/STM32F3xx_HAL_Driver/Src/stm32f3xx_hal_rtc_ex.c **** HAL_StatusTypeDef HAL_RTCEx_SetWakeUpTimer_IT(RTC_HandleTypeDef *hrtc, uint32_t WakeUpCounter, uint
 990:Drivers/STM32F3xx_HAL_Driver/Src/stm32f3xx_hal_rtc_ex.c **** {
 1704              		.loc 1 990 1 is_stmt 1 view -0
 1705              		.cfi_startproc
 1706              		@ args = 0, pretend = 0, frame = 8
 1707              		@ frame_needed = 0, uses_anonymous_args = 0
 1708              		@ link register save eliminated.
 1709              		.loc 1 990 1 is_stmt 0 view .LVU548
 1710 0000 30B4     		push	{r4, r5}
 1711              	.LCFI21:
 1712              		.cfi_def_cfa_offset 8
 1713              		.cfi_offset 4, -8
 1714              		.cfi_offset 5, -4
 1715 0002 82B0     		sub	sp, sp, #8
 1716              	.LCFI22:
 1717              		.cfi_def_cfa_offset 16
 991:Drivers/STM32F3xx_HAL_Driver/Src/stm32f3xx_hal_rtc_ex.c ****   __IO uint32_t count  = RTC_TIMEOUT_VALUE * (SystemCoreClock / 32U / 1000U);
 1718              		.loc 1 991 3 is_stmt 1 view .LVU549
 1719              		.loc 1 991 69 is_stmt 0 view .LVU550
 1720 0004 3B4B     		ldr	r3, .L123
 1721 0006 1B68     		ldr	r3, [r3]
 1722 0008 3B4C     		ldr	r4, .L123+4
 1723 000a A4FB0343 		umull	r4, r3, r4, r3
 1724 000e DB0A     		lsrs	r3, r3, #11
 1725              		.loc 1 991 44 view .LVU551
 1726 0010 4FF47A75 		mov	r5, #1000
 1727 0014 05FB03F5 		mul	r5, r5, r3
 1728              		.loc 1 991 17 view .LVU552
 1729 0018 0195     		str	r5, [sp, #4]
 992:Drivers/STM32F3xx_HAL_Driver/Src/stm32f3xx_hal_rtc_ex.c **** 
 993:Drivers/STM32F3xx_HAL_Driver/Src/stm32f3xx_hal_rtc_ex.c ****   /* Check the parameters */
ARM GAS  /tmp/ccpBOonR.s 			page 50


 994:Drivers/STM32F3xx_HAL_Driver/Src/stm32f3xx_hal_rtc_ex.c ****   assert_param(IS_RTC_WAKEUP_CLOCK(WakeUpClock));
 1730              		.loc 1 994 3 is_stmt 1 view .LVU553
 995:Drivers/STM32F3xx_HAL_Driver/Src/stm32f3xx_hal_rtc_ex.c ****   assert_param(IS_RTC_WAKEUP_COUNTER(WakeUpCounter));
 1731              		.loc 1 995 3 view .LVU554
 996:Drivers/STM32F3xx_HAL_Driver/Src/stm32f3xx_hal_rtc_ex.c **** 
 997:Drivers/STM32F3xx_HAL_Driver/Src/stm32f3xx_hal_rtc_ex.c ****   /* Process Locked */
 998:Drivers/STM32F3xx_HAL_Driver/Src/stm32f3xx_hal_rtc_ex.c ****   __HAL_LOCK(hrtc);
 1732              		.loc 1 998 3 view .LVU555
 1733              		.loc 1 998 3 view .LVU556
 1734 001a 037F     		ldrb	r3, [r0, #28]	@ zero_extendqisi2
 1735 001c 012B     		cmp	r3, #1
 1736 001e 67D0     		beq	.L119
 1737              		.loc 1 998 3 discriminator 2 view .LVU557
 1738 0020 0123     		movs	r3, #1
 1739 0022 0377     		strb	r3, [r0, #28]
 999:Drivers/STM32F3xx_HAL_Driver/Src/stm32f3xx_hal_rtc_ex.c **** 
1000:Drivers/STM32F3xx_HAL_Driver/Src/stm32f3xx_hal_rtc_ex.c ****   hrtc->State = HAL_RTC_STATE_BUSY;
 1740              		.loc 1 1000 3 discriminator 2 view .LVU558
 1741              		.loc 1 1000 15 is_stmt 0 discriminator 2 view .LVU559
 1742 0024 0223     		movs	r3, #2
 1743 0026 4377     		strb	r3, [r0, #29]
1001:Drivers/STM32F3xx_HAL_Driver/Src/stm32f3xx_hal_rtc_ex.c **** 
1002:Drivers/STM32F3xx_HAL_Driver/Src/stm32f3xx_hal_rtc_ex.c ****   /* Disable the write protection for RTC registers */
1003:Drivers/STM32F3xx_HAL_Driver/Src/stm32f3xx_hal_rtc_ex.c ****   __HAL_RTC_WRITEPROTECTION_DISABLE(hrtc);
 1744              		.loc 1 1003 3 is_stmt 1 discriminator 2 view .LVU560
 1745              		.loc 1 1003 3 discriminator 2 view .LVU561
 1746 0028 0368     		ldr	r3, [r0]
 1747 002a CA24     		movs	r4, #202
 1748 002c 5C62     		str	r4, [r3, #36]
 1749              		.loc 1 1003 3 discriminator 2 view .LVU562
 1750 002e 0368     		ldr	r3, [r0]
 1751 0030 5324     		movs	r4, #83
 1752 0032 5C62     		str	r4, [r3, #36]
1004:Drivers/STM32F3xx_HAL_Driver/Src/stm32f3xx_hal_rtc_ex.c **** 
1005:Drivers/STM32F3xx_HAL_Driver/Src/stm32f3xx_hal_rtc_ex.c ****   /* Check RTC WUTWF flag is reset only when wakeup timer enabled */
1006:Drivers/STM32F3xx_HAL_Driver/Src/stm32f3xx_hal_rtc_ex.c ****   if ((hrtc->Instance->CR & RTC_CR_WUTE) != 0U)
 1753              		.loc 1 1006 3 discriminator 2 view .LVU563
 1754              		.loc 1 1006 12 is_stmt 0 discriminator 2 view .LVU564
 1755 0034 0468     		ldr	r4, [r0]
 1756              		.loc 1 1006 22 discriminator 2 view .LVU565
 1757 0036 A368     		ldr	r3, [r4, #8]
 1758              		.loc 1 1006 6 discriminator 2 view .LVU566
 1759 0038 13F4806F 		tst	r3, #1024
 1760 003c 09D0     		beq	.L114
 1761              	.L116:
1007:Drivers/STM32F3xx_HAL_Driver/Src/stm32f3xx_hal_rtc_ex.c ****   {
1008:Drivers/STM32F3xx_HAL_Driver/Src/stm32f3xx_hal_rtc_ex.c ****     /* Wait till RTC WUTWF flag is reset and if timeout is reached exit */
1009:Drivers/STM32F3xx_HAL_Driver/Src/stm32f3xx_hal_rtc_ex.c ****     do
 1762              		.loc 1 1009 5 is_stmt 1 view .LVU567
1010:Drivers/STM32F3xx_HAL_Driver/Src/stm32f3xx_hal_rtc_ex.c ****     {
1011:Drivers/STM32F3xx_HAL_Driver/Src/stm32f3xx_hal_rtc_ex.c ****       count = count - 1U;
 1763              		.loc 1 1011 7 view .LVU568
 1764              		.loc 1 1011 21 is_stmt 0 view .LVU569
 1765 003e 019B     		ldr	r3, [sp, #4]
 1766 0040 013B     		subs	r3, r3, #1
 1767              		.loc 1 1011 13 view .LVU570
 1768 0042 0193     		str	r3, [sp, #4]
ARM GAS  /tmp/ccpBOonR.s 			page 51


1012:Drivers/STM32F3xx_HAL_Driver/Src/stm32f3xx_hal_rtc_ex.c ****       if (count == 0U)
 1769              		.loc 1 1012 7 is_stmt 1 view .LVU571
 1770              		.loc 1 1012 17 is_stmt 0 view .LVU572
 1771 0044 019B     		ldr	r3, [sp, #4]
 1772              		.loc 1 1012 10 view .LVU573
 1773 0046 002B     		cmp	r3, #0
 1774 0048 3FD0     		beq	.L121
1013:Drivers/STM32F3xx_HAL_Driver/Src/stm32f3xx_hal_rtc_ex.c ****       {
1014:Drivers/STM32F3xx_HAL_Driver/Src/stm32f3xx_hal_rtc_ex.c ****         /* Enable the write protection for RTC registers */
1015:Drivers/STM32F3xx_HAL_Driver/Src/stm32f3xx_hal_rtc_ex.c ****         __HAL_RTC_WRITEPROTECTION_ENABLE(hrtc);
1016:Drivers/STM32F3xx_HAL_Driver/Src/stm32f3xx_hal_rtc_ex.c **** 
1017:Drivers/STM32F3xx_HAL_Driver/Src/stm32f3xx_hal_rtc_ex.c ****         hrtc->State = HAL_RTC_STATE_TIMEOUT;
1018:Drivers/STM32F3xx_HAL_Driver/Src/stm32f3xx_hal_rtc_ex.c **** 
1019:Drivers/STM32F3xx_HAL_Driver/Src/stm32f3xx_hal_rtc_ex.c ****         /* Process Unlocked */
1020:Drivers/STM32F3xx_HAL_Driver/Src/stm32f3xx_hal_rtc_ex.c ****         __HAL_UNLOCK(hrtc);
1021:Drivers/STM32F3xx_HAL_Driver/Src/stm32f3xx_hal_rtc_ex.c **** 
1022:Drivers/STM32F3xx_HAL_Driver/Src/stm32f3xx_hal_rtc_ex.c ****         return HAL_TIMEOUT;
1023:Drivers/STM32F3xx_HAL_Driver/Src/stm32f3xx_hal_rtc_ex.c ****       }
1024:Drivers/STM32F3xx_HAL_Driver/Src/stm32f3xx_hal_rtc_ex.c ****     } while (__HAL_RTC_WAKEUPTIMER_GET_FLAG(hrtc, RTC_FLAG_WUTWF) != 0U);
 1775              		.loc 1 1024 14 view .LVU574
 1776 004a E368     		ldr	r3, [r4, #12]
 1777              		.loc 1 1024 5 view .LVU575
 1778 004c 13F0040F 		tst	r3, #4
 1779 0050 F5D1     		bne	.L116
 1780              	.L114:
1025:Drivers/STM32F3xx_HAL_Driver/Src/stm32f3xx_hal_rtc_ex.c ****   }
1026:Drivers/STM32F3xx_HAL_Driver/Src/stm32f3xx_hal_rtc_ex.c **** 
1027:Drivers/STM32F3xx_HAL_Driver/Src/stm32f3xx_hal_rtc_ex.c ****   /* Disable the Wakeup timer */
1028:Drivers/STM32F3xx_HAL_Driver/Src/stm32f3xx_hal_rtc_ex.c ****   __HAL_RTC_WAKEUPTIMER_DISABLE(hrtc);
 1781              		.loc 1 1028 3 is_stmt 1 view .LVU576
 1782 0052 A368     		ldr	r3, [r4, #8]
 1783 0054 23F48063 		bic	r3, r3, #1024
 1784 0058 A360     		str	r3, [r4, #8]
1029:Drivers/STM32F3xx_HAL_Driver/Src/stm32f3xx_hal_rtc_ex.c **** 
1030:Drivers/STM32F3xx_HAL_Driver/Src/stm32f3xx_hal_rtc_ex.c ****   /* Clear the Wakeup flag */
1031:Drivers/STM32F3xx_HAL_Driver/Src/stm32f3xx_hal_rtc_ex.c ****   __HAL_RTC_WAKEUPTIMER_CLEAR_FLAG(hrtc, RTC_FLAG_WUTF);
 1785              		.loc 1 1031 3 view .LVU577
 1786 005a 0468     		ldr	r4, [r0]
 1787 005c E368     		ldr	r3, [r4, #12]
 1788 005e DBB2     		uxtb	r3, r3
 1789 0060 63F49063 		orn	r3, r3, #1152
 1790 0064 E360     		str	r3, [r4, #12]
1032:Drivers/STM32F3xx_HAL_Driver/Src/stm32f3xx_hal_rtc_ex.c **** 
1033:Drivers/STM32F3xx_HAL_Driver/Src/stm32f3xx_hal_rtc_ex.c ****   /* Reload the counter */
1034:Drivers/STM32F3xx_HAL_Driver/Src/stm32f3xx_hal_rtc_ex.c ****   count = RTC_TIMEOUT_VALUE * (SystemCoreClock / 32U / 1000U);
 1791              		.loc 1 1034 3 view .LVU578
 1792              		.loc 1 1034 9 is_stmt 0 view .LVU579
 1793 0066 0195     		str	r5, [sp, #4]
 1794              	.L118:
1035:Drivers/STM32F3xx_HAL_Driver/Src/stm32f3xx_hal_rtc_ex.c **** 
1036:Drivers/STM32F3xx_HAL_Driver/Src/stm32f3xx_hal_rtc_ex.c ****   /* Wait till RTC WUTWF flag is set and if timeout is reached exit */
1037:Drivers/STM32F3xx_HAL_Driver/Src/stm32f3xx_hal_rtc_ex.c ****   do
 1795              		.loc 1 1037 3 is_stmt 1 view .LVU580
1038:Drivers/STM32F3xx_HAL_Driver/Src/stm32f3xx_hal_rtc_ex.c ****   {
1039:Drivers/STM32F3xx_HAL_Driver/Src/stm32f3xx_hal_rtc_ex.c ****     count = count - 1U;
 1796              		.loc 1 1039 5 view .LVU581
 1797              		.loc 1 1039 19 is_stmt 0 view .LVU582
ARM GAS  /tmp/ccpBOonR.s 			page 52


 1798 0068 019B     		ldr	r3, [sp, #4]
 1799 006a 013B     		subs	r3, r3, #1
 1800              		.loc 1 1039 11 view .LVU583
 1801 006c 0193     		str	r3, [sp, #4]
1040:Drivers/STM32F3xx_HAL_Driver/Src/stm32f3xx_hal_rtc_ex.c ****     if (count == 0U)
 1802              		.loc 1 1040 5 is_stmt 1 view .LVU584
 1803              		.loc 1 1040 15 is_stmt 0 view .LVU585
 1804 006e 019B     		ldr	r3, [sp, #4]
 1805              		.loc 1 1040 8 view .LVU586
 1806 0070 002B     		cmp	r3, #0
 1807 0072 32D0     		beq	.L122
1041:Drivers/STM32F3xx_HAL_Driver/Src/stm32f3xx_hal_rtc_ex.c ****     {
1042:Drivers/STM32F3xx_HAL_Driver/Src/stm32f3xx_hal_rtc_ex.c ****       /* Enable the write protection for RTC registers */
1043:Drivers/STM32F3xx_HAL_Driver/Src/stm32f3xx_hal_rtc_ex.c ****       __HAL_RTC_WRITEPROTECTION_ENABLE(hrtc);
1044:Drivers/STM32F3xx_HAL_Driver/Src/stm32f3xx_hal_rtc_ex.c **** 
1045:Drivers/STM32F3xx_HAL_Driver/Src/stm32f3xx_hal_rtc_ex.c ****       hrtc->State = HAL_RTC_STATE_TIMEOUT;
1046:Drivers/STM32F3xx_HAL_Driver/Src/stm32f3xx_hal_rtc_ex.c **** 
1047:Drivers/STM32F3xx_HAL_Driver/Src/stm32f3xx_hal_rtc_ex.c ****       /* Process Unlocked */
1048:Drivers/STM32F3xx_HAL_Driver/Src/stm32f3xx_hal_rtc_ex.c ****       __HAL_UNLOCK(hrtc);
1049:Drivers/STM32F3xx_HAL_Driver/Src/stm32f3xx_hal_rtc_ex.c **** 
1050:Drivers/STM32F3xx_HAL_Driver/Src/stm32f3xx_hal_rtc_ex.c ****       return HAL_TIMEOUT;
1051:Drivers/STM32F3xx_HAL_Driver/Src/stm32f3xx_hal_rtc_ex.c ****     }
1052:Drivers/STM32F3xx_HAL_Driver/Src/stm32f3xx_hal_rtc_ex.c ****   } while (__HAL_RTC_WAKEUPTIMER_GET_FLAG(hrtc, RTC_FLAG_WUTWF) == 0U);
 1808              		.loc 1 1052 12 view .LVU587
 1809 0074 0368     		ldr	r3, [r0]
 1810 0076 DC68     		ldr	r4, [r3, #12]
 1811              		.loc 1 1052 3 view .LVU588
 1812 0078 14F0040F 		tst	r4, #4
 1813 007c F4D0     		beq	.L118
1053:Drivers/STM32F3xx_HAL_Driver/Src/stm32f3xx_hal_rtc_ex.c **** 
1054:Drivers/STM32F3xx_HAL_Driver/Src/stm32f3xx_hal_rtc_ex.c ****   /* Clear the Wakeup Timer clock source bits in CR register */
1055:Drivers/STM32F3xx_HAL_Driver/Src/stm32f3xx_hal_rtc_ex.c ****   hrtc->Instance->CR &= (uint32_t)~RTC_CR_WUCKSEL;
 1814              		.loc 1 1055 3 is_stmt 1 view .LVU589
 1815              		.loc 1 1055 22 is_stmt 0 view .LVU590
 1816 007e 9C68     		ldr	r4, [r3, #8]
 1817 0080 24F00704 		bic	r4, r4, #7
 1818 0084 9C60     		str	r4, [r3, #8]
1056:Drivers/STM32F3xx_HAL_Driver/Src/stm32f3xx_hal_rtc_ex.c **** 
1057:Drivers/STM32F3xx_HAL_Driver/Src/stm32f3xx_hal_rtc_ex.c ****   /* Configure the clock source */
1058:Drivers/STM32F3xx_HAL_Driver/Src/stm32f3xx_hal_rtc_ex.c ****   hrtc->Instance->CR |= (uint32_t)WakeUpClock;
 1819              		.loc 1 1058 3 is_stmt 1 view .LVU591
 1820              		.loc 1 1058 7 is_stmt 0 view .LVU592
 1821 0086 0468     		ldr	r4, [r0]
 1822              		.loc 1 1058 22 view .LVU593
 1823 0088 A368     		ldr	r3, [r4, #8]
 1824 008a 1A43     		orrs	r2, r2, r3
 1825              	.LVL123:
 1826              		.loc 1 1058 22 view .LVU594
 1827 008c A260     		str	r2, [r4, #8]
1059:Drivers/STM32F3xx_HAL_Driver/Src/stm32f3xx_hal_rtc_ex.c **** 
1060:Drivers/STM32F3xx_HAL_Driver/Src/stm32f3xx_hal_rtc_ex.c ****   /* Configure the Wakeup Timer counter */
1061:Drivers/STM32F3xx_HAL_Driver/Src/stm32f3xx_hal_rtc_ex.c ****   hrtc->Instance->WUTR = (uint32_t)WakeUpCounter;
 1828              		.loc 1 1061 3 is_stmt 1 view .LVU595
 1829              		.loc 1 1061 7 is_stmt 0 view .LVU596
 1830 008e 0368     		ldr	r3, [r0]
 1831              		.loc 1 1061 24 view .LVU597
 1832 0090 5961     		str	r1, [r3, #20]
ARM GAS  /tmp/ccpBOonR.s 			page 53


1062:Drivers/STM32F3xx_HAL_Driver/Src/stm32f3xx_hal_rtc_ex.c **** 
1063:Drivers/STM32F3xx_HAL_Driver/Src/stm32f3xx_hal_rtc_ex.c ****   /* RTC wakeup timer Interrupt Configuration: EXTI configuration */
1064:Drivers/STM32F3xx_HAL_Driver/Src/stm32f3xx_hal_rtc_ex.c ****   __HAL_RTC_WAKEUPTIMER_EXTI_ENABLE_IT();
 1833              		.loc 1 1064 3 is_stmt 1 view .LVU598
 1834 0092 1A4B     		ldr	r3, .L123+8
 1835 0094 1A68     		ldr	r2, [r3]
 1836 0096 42F48012 		orr	r2, r2, #1048576
 1837 009a 1A60     		str	r2, [r3]
1065:Drivers/STM32F3xx_HAL_Driver/Src/stm32f3xx_hal_rtc_ex.c ****   __HAL_RTC_WAKEUPTIMER_EXTI_ENABLE_RISING_EDGE();
 1838              		.loc 1 1065 3 view .LVU599
 1839 009c 9A68     		ldr	r2, [r3, #8]
 1840 009e 42F48012 		orr	r2, r2, #1048576
 1841 00a2 9A60     		str	r2, [r3, #8]
1066:Drivers/STM32F3xx_HAL_Driver/Src/stm32f3xx_hal_rtc_ex.c **** 
1067:Drivers/STM32F3xx_HAL_Driver/Src/stm32f3xx_hal_rtc_ex.c ****   /* Configure the interrupt in the RTC_CR register */
1068:Drivers/STM32F3xx_HAL_Driver/Src/stm32f3xx_hal_rtc_ex.c ****   __HAL_RTC_WAKEUPTIMER_ENABLE_IT(hrtc, RTC_IT_WUT);
 1842              		.loc 1 1068 3 view .LVU600
 1843 00a4 0268     		ldr	r2, [r0]
 1844 00a6 9368     		ldr	r3, [r2, #8]
 1845 00a8 43F48043 		orr	r3, r3, #16384
 1846 00ac 9360     		str	r3, [r2, #8]
1069:Drivers/STM32F3xx_HAL_Driver/Src/stm32f3xx_hal_rtc_ex.c **** 
1070:Drivers/STM32F3xx_HAL_Driver/Src/stm32f3xx_hal_rtc_ex.c ****   /* Enable the Wakeup Timer */
1071:Drivers/STM32F3xx_HAL_Driver/Src/stm32f3xx_hal_rtc_ex.c ****   __HAL_RTC_WAKEUPTIMER_ENABLE(hrtc);
 1847              		.loc 1 1071 3 view .LVU601
 1848 00ae 0268     		ldr	r2, [r0]
 1849 00b0 9368     		ldr	r3, [r2, #8]
 1850 00b2 43F48063 		orr	r3, r3, #1024
 1851 00b6 9360     		str	r3, [r2, #8]
1072:Drivers/STM32F3xx_HAL_Driver/Src/stm32f3xx_hal_rtc_ex.c **** 
1073:Drivers/STM32F3xx_HAL_Driver/Src/stm32f3xx_hal_rtc_ex.c ****   /* Enable the write protection for RTC registers */
1074:Drivers/STM32F3xx_HAL_Driver/Src/stm32f3xx_hal_rtc_ex.c ****   __HAL_RTC_WRITEPROTECTION_ENABLE(hrtc);
 1852              		.loc 1 1074 3 view .LVU602
 1853              		.loc 1 1074 3 view .LVU603
 1854 00b8 0368     		ldr	r3, [r0]
 1855 00ba FF22     		movs	r2, #255
 1856 00bc 5A62     		str	r2, [r3, #36]
1075:Drivers/STM32F3xx_HAL_Driver/Src/stm32f3xx_hal_rtc_ex.c **** 
1076:Drivers/STM32F3xx_HAL_Driver/Src/stm32f3xx_hal_rtc_ex.c ****   hrtc->State = HAL_RTC_STATE_READY;
 1857              		.loc 1 1076 3 view .LVU604
 1858              		.loc 1 1076 15 is_stmt 0 view .LVU605
 1859 00be 0123     		movs	r3, #1
 1860 00c0 4377     		strb	r3, [r0, #29]
1077:Drivers/STM32F3xx_HAL_Driver/Src/stm32f3xx_hal_rtc_ex.c **** 
1078:Drivers/STM32F3xx_HAL_Driver/Src/stm32f3xx_hal_rtc_ex.c ****   /* Process Unlocked */
1079:Drivers/STM32F3xx_HAL_Driver/Src/stm32f3xx_hal_rtc_ex.c ****   __HAL_UNLOCK(hrtc);
 1861              		.loc 1 1079 3 is_stmt 1 view .LVU606
 1862              		.loc 1 1079 3 view .LVU607
 1863 00c2 0023     		movs	r3, #0
 1864 00c4 0377     		strb	r3, [r0, #28]
1080:Drivers/STM32F3xx_HAL_Driver/Src/stm32f3xx_hal_rtc_ex.c **** 
1081:Drivers/STM32F3xx_HAL_Driver/Src/stm32f3xx_hal_rtc_ex.c ****   return HAL_OK;
 1865              		.loc 1 1081 3 view .LVU608
 1866              		.loc 1 1081 10 is_stmt 0 view .LVU609
 1867 00c6 1846     		mov	r0, r3
 1868              	.LVL124:
 1869              		.loc 1 1081 10 view .LVU610
ARM GAS  /tmp/ccpBOonR.s 			page 54


 1870 00c8 0FE0     		b	.L113
 1871              	.LVL125:
 1872              	.L121:
1015:Drivers/STM32F3xx_HAL_Driver/Src/stm32f3xx_hal_rtc_ex.c **** 
 1873              		.loc 1 1015 9 is_stmt 1 view .LVU611
1015:Drivers/STM32F3xx_HAL_Driver/Src/stm32f3xx_hal_rtc_ex.c **** 
 1874              		.loc 1 1015 9 view .LVU612
 1875 00ca FF23     		movs	r3, #255
 1876 00cc 6362     		str	r3, [r4, #36]
1017:Drivers/STM32F3xx_HAL_Driver/Src/stm32f3xx_hal_rtc_ex.c **** 
 1877              		.loc 1 1017 9 view .LVU613
1017:Drivers/STM32F3xx_HAL_Driver/Src/stm32f3xx_hal_rtc_ex.c **** 
 1878              		.loc 1 1017 21 is_stmt 0 view .LVU614
 1879 00ce 0323     		movs	r3, #3
 1880 00d0 4377     		strb	r3, [r0, #29]
1020:Drivers/STM32F3xx_HAL_Driver/Src/stm32f3xx_hal_rtc_ex.c **** 
 1881              		.loc 1 1020 9 is_stmt 1 view .LVU615
1020:Drivers/STM32F3xx_HAL_Driver/Src/stm32f3xx_hal_rtc_ex.c **** 
 1882              		.loc 1 1020 9 view .LVU616
 1883 00d2 0022     		movs	r2, #0
 1884              	.LVL126:
1020:Drivers/STM32F3xx_HAL_Driver/Src/stm32f3xx_hal_rtc_ex.c **** 
 1885              		.loc 1 1020 9 is_stmt 0 view .LVU617
 1886 00d4 0277     		strb	r2, [r0, #28]
1022:Drivers/STM32F3xx_HAL_Driver/Src/stm32f3xx_hal_rtc_ex.c ****       }
 1887              		.loc 1 1022 9 is_stmt 1 view .LVU618
1022:Drivers/STM32F3xx_HAL_Driver/Src/stm32f3xx_hal_rtc_ex.c ****       }
 1888              		.loc 1 1022 16 is_stmt 0 view .LVU619
 1889 00d6 1846     		mov	r0, r3
 1890              	.LVL127:
1022:Drivers/STM32F3xx_HAL_Driver/Src/stm32f3xx_hal_rtc_ex.c ****       }
 1891              		.loc 1 1022 16 view .LVU620
 1892 00d8 07E0     		b	.L113
 1893              	.LVL128:
 1894              	.L122:
1043:Drivers/STM32F3xx_HAL_Driver/Src/stm32f3xx_hal_rtc_ex.c **** 
 1895              		.loc 1 1043 7 is_stmt 1 view .LVU621
1043:Drivers/STM32F3xx_HAL_Driver/Src/stm32f3xx_hal_rtc_ex.c **** 
 1896              		.loc 1 1043 7 view .LVU622
 1897 00da 0368     		ldr	r3, [r0]
 1898 00dc FF22     		movs	r2, #255
 1899              	.LVL129:
1043:Drivers/STM32F3xx_HAL_Driver/Src/stm32f3xx_hal_rtc_ex.c **** 
 1900              		.loc 1 1043 7 is_stmt 0 view .LVU623
 1901 00de 5A62     		str	r2, [r3, #36]
1045:Drivers/STM32F3xx_HAL_Driver/Src/stm32f3xx_hal_rtc_ex.c **** 
 1902              		.loc 1 1045 7 is_stmt 1 view .LVU624
1045:Drivers/STM32F3xx_HAL_Driver/Src/stm32f3xx_hal_rtc_ex.c **** 
 1903              		.loc 1 1045 19 is_stmt 0 view .LVU625
 1904 00e0 0323     		movs	r3, #3
 1905 00e2 4377     		strb	r3, [r0, #29]
1048:Drivers/STM32F3xx_HAL_Driver/Src/stm32f3xx_hal_rtc_ex.c **** 
 1906              		.loc 1 1048 7 is_stmt 1 view .LVU626
1048:Drivers/STM32F3xx_HAL_Driver/Src/stm32f3xx_hal_rtc_ex.c **** 
 1907              		.loc 1 1048 7 view .LVU627
 1908 00e4 0022     		movs	r2, #0
 1909 00e6 0277     		strb	r2, [r0, #28]
ARM GAS  /tmp/ccpBOonR.s 			page 55


1050:Drivers/STM32F3xx_HAL_Driver/Src/stm32f3xx_hal_rtc_ex.c ****     }
 1910              		.loc 1 1050 7 view .LVU628
1050:Drivers/STM32F3xx_HAL_Driver/Src/stm32f3xx_hal_rtc_ex.c ****     }
 1911              		.loc 1 1050 14 is_stmt 0 view .LVU629
 1912 00e8 1846     		mov	r0, r3
 1913              	.LVL130:
 1914              	.L113:
1082:Drivers/STM32F3xx_HAL_Driver/Src/stm32f3xx_hal_rtc_ex.c **** }
 1915              		.loc 1 1082 1 view .LVU630
 1916 00ea 02B0     		add	sp, sp, #8
 1917              	.LCFI23:
 1918              		.cfi_remember_state
 1919              		.cfi_def_cfa_offset 8
 1920              		@ sp needed
 1921 00ec 30BC     		pop	{r4, r5}
 1922              	.LCFI24:
 1923              		.cfi_restore 5
 1924              		.cfi_restore 4
 1925              		.cfi_def_cfa_offset 0
 1926 00ee 7047     		bx	lr
 1927              	.LVL131:
 1928              	.L119:
 1929              	.LCFI25:
 1930              		.cfi_restore_state
 998:Drivers/STM32F3xx_HAL_Driver/Src/stm32f3xx_hal_rtc_ex.c **** 
 1931              		.loc 1 998 3 view .LVU631
 1932 00f0 0220     		movs	r0, #2
 1933              	.LVL132:
 998:Drivers/STM32F3xx_HAL_Driver/Src/stm32f3xx_hal_rtc_ex.c **** 
 1934              		.loc 1 998 3 view .LVU632
 1935 00f2 FAE7     		b	.L113
 1936              	.L124:
 1937              		.align	2
 1938              	.L123:
 1939 00f4 00000000 		.word	SystemCoreClock
 1940 00f8 D34D6210 		.word	274877907
 1941 00fc 00040140 		.word	1073808384
 1942              		.cfi_endproc
 1943              	.LFE147:
 1945              		.section	.text.HAL_RTCEx_DeactivateWakeUpTimer,"ax",%progbits
 1946              		.align	1
 1947              		.global	HAL_RTCEx_DeactivateWakeUpTimer
 1948              		.syntax unified
 1949              		.thumb
 1950              		.thumb_func
 1951              		.fpu fpv4-sp-d16
 1953              	HAL_RTCEx_DeactivateWakeUpTimer:
 1954              	.LVL133:
 1955              	.LFB148:
1083:Drivers/STM32F3xx_HAL_Driver/Src/stm32f3xx_hal_rtc_ex.c **** 
1084:Drivers/STM32F3xx_HAL_Driver/Src/stm32f3xx_hal_rtc_ex.c **** /**
1085:Drivers/STM32F3xx_HAL_Driver/Src/stm32f3xx_hal_rtc_ex.c ****   * @brief  Deactivates wakeup timer counter.
1086:Drivers/STM32F3xx_HAL_Driver/Src/stm32f3xx_hal_rtc_ex.c ****   * @param  hrtc pointer to a RTC_HandleTypeDef structure that contains
1087:Drivers/STM32F3xx_HAL_Driver/Src/stm32f3xx_hal_rtc_ex.c ****   *                the configuration information for RTC.
1088:Drivers/STM32F3xx_HAL_Driver/Src/stm32f3xx_hal_rtc_ex.c ****   * @retval HAL status
1089:Drivers/STM32F3xx_HAL_Driver/Src/stm32f3xx_hal_rtc_ex.c ****   */
1090:Drivers/STM32F3xx_HAL_Driver/Src/stm32f3xx_hal_rtc_ex.c **** HAL_StatusTypeDef HAL_RTCEx_DeactivateWakeUpTimer(RTC_HandleTypeDef *hrtc)
ARM GAS  /tmp/ccpBOonR.s 			page 56


1091:Drivers/STM32F3xx_HAL_Driver/Src/stm32f3xx_hal_rtc_ex.c **** {
 1956              		.loc 1 1091 1 is_stmt 1 view -0
 1957              		.cfi_startproc
 1958              		@ args = 0, pretend = 0, frame = 0
 1959              		@ frame_needed = 0, uses_anonymous_args = 0
 1960              		.loc 1 1091 1 is_stmt 0 view .LVU634
 1961 0000 38B5     		push	{r3, r4, r5, lr}
 1962              	.LCFI26:
 1963              		.cfi_def_cfa_offset 16
 1964              		.cfi_offset 3, -16
 1965              		.cfi_offset 4, -12
 1966              		.cfi_offset 5, -8
 1967              		.cfi_offset 14, -4
1092:Drivers/STM32F3xx_HAL_Driver/Src/stm32f3xx_hal_rtc_ex.c ****   uint32_t tickstart = 0U;
 1968              		.loc 1 1092 3 is_stmt 1 view .LVU635
 1969              	.LVL134:
1093:Drivers/STM32F3xx_HAL_Driver/Src/stm32f3xx_hal_rtc_ex.c **** 
1094:Drivers/STM32F3xx_HAL_Driver/Src/stm32f3xx_hal_rtc_ex.c ****   /* Process Locked */
1095:Drivers/STM32F3xx_HAL_Driver/Src/stm32f3xx_hal_rtc_ex.c ****   __HAL_LOCK(hrtc);
 1970              		.loc 1 1095 3 view .LVU636
 1971              		.loc 1 1095 3 view .LVU637
 1972 0002 037F     		ldrb	r3, [r0, #28]	@ zero_extendqisi2
 1973 0004 012B     		cmp	r3, #1
 1974 0006 31D0     		beq	.L129
 1975 0008 0446     		mov	r4, r0
 1976              		.loc 1 1095 3 discriminator 2 view .LVU638
 1977 000a 0123     		movs	r3, #1
 1978 000c 0377     		strb	r3, [r0, #28]
1096:Drivers/STM32F3xx_HAL_Driver/Src/stm32f3xx_hal_rtc_ex.c **** 
1097:Drivers/STM32F3xx_HAL_Driver/Src/stm32f3xx_hal_rtc_ex.c ****   hrtc->State = HAL_RTC_STATE_BUSY;
 1979              		.loc 1 1097 3 discriminator 2 view .LVU639
 1980              		.loc 1 1097 15 is_stmt 0 discriminator 2 view .LVU640
 1981 000e 0223     		movs	r3, #2
 1982 0010 4377     		strb	r3, [r0, #29]
1098:Drivers/STM32F3xx_HAL_Driver/Src/stm32f3xx_hal_rtc_ex.c **** 
1099:Drivers/STM32F3xx_HAL_Driver/Src/stm32f3xx_hal_rtc_ex.c ****   /* Disable the write protection for RTC registers */
1100:Drivers/STM32F3xx_HAL_Driver/Src/stm32f3xx_hal_rtc_ex.c ****   __HAL_RTC_WRITEPROTECTION_DISABLE(hrtc);
 1983              		.loc 1 1100 3 is_stmt 1 discriminator 2 view .LVU641
 1984              		.loc 1 1100 3 discriminator 2 view .LVU642
 1985 0012 0368     		ldr	r3, [r0]
 1986 0014 CA22     		movs	r2, #202
 1987 0016 5A62     		str	r2, [r3, #36]
 1988              		.loc 1 1100 3 discriminator 2 view .LVU643
 1989 0018 0368     		ldr	r3, [r0]
 1990 001a 5322     		movs	r2, #83
 1991 001c 5A62     		str	r2, [r3, #36]
1101:Drivers/STM32F3xx_HAL_Driver/Src/stm32f3xx_hal_rtc_ex.c **** 
1102:Drivers/STM32F3xx_HAL_Driver/Src/stm32f3xx_hal_rtc_ex.c ****   /* Disable the Wakeup Timer */
1103:Drivers/STM32F3xx_HAL_Driver/Src/stm32f3xx_hal_rtc_ex.c ****   __HAL_RTC_WAKEUPTIMER_DISABLE(hrtc);
 1992              		.loc 1 1103 3 discriminator 2 view .LVU644
 1993 001e 0268     		ldr	r2, [r0]
 1994 0020 9368     		ldr	r3, [r2, #8]
 1995 0022 23F48063 		bic	r3, r3, #1024
 1996 0026 9360     		str	r3, [r2, #8]
1104:Drivers/STM32F3xx_HAL_Driver/Src/stm32f3xx_hal_rtc_ex.c **** 
1105:Drivers/STM32F3xx_HAL_Driver/Src/stm32f3xx_hal_rtc_ex.c ****   /* In case of interrupt mode is used, the interrupt source must disabled */
1106:Drivers/STM32F3xx_HAL_Driver/Src/stm32f3xx_hal_rtc_ex.c ****   __HAL_RTC_WAKEUPTIMER_DISABLE_IT(hrtc, RTC_IT_WUT);
ARM GAS  /tmp/ccpBOonR.s 			page 57


 1997              		.loc 1 1106 3 discriminator 2 view .LVU645
 1998 0028 0268     		ldr	r2, [r0]
 1999 002a 9368     		ldr	r3, [r2, #8]
 2000 002c 23F48043 		bic	r3, r3, #16384
 2001 0030 9360     		str	r3, [r2, #8]
1107:Drivers/STM32F3xx_HAL_Driver/Src/stm32f3xx_hal_rtc_ex.c **** 
1108:Drivers/STM32F3xx_HAL_Driver/Src/stm32f3xx_hal_rtc_ex.c ****   /* Get tick */
1109:Drivers/STM32F3xx_HAL_Driver/Src/stm32f3xx_hal_rtc_ex.c ****   tickstart = HAL_GetTick();
 2002              		.loc 1 1109 3 discriminator 2 view .LVU646
 2003              		.loc 1 1109 15 is_stmt 0 discriminator 2 view .LVU647
 2004 0032 FFF7FEFF 		bl	HAL_GetTick
 2005              	.LVL135:
 2006              		.loc 1 1109 15 discriminator 2 view .LVU648
 2007 0036 0546     		mov	r5, r0
 2008              	.LVL136:
1110:Drivers/STM32F3xx_HAL_Driver/Src/stm32f3xx_hal_rtc_ex.c **** 
1111:Drivers/STM32F3xx_HAL_Driver/Src/stm32f3xx_hal_rtc_ex.c ****   /* Wait till RTC WUTWF flag is set and if timeout is reached exit */
1112:Drivers/STM32F3xx_HAL_Driver/Src/stm32f3xx_hal_rtc_ex.c ****   while (__HAL_RTC_WAKEUPTIMER_GET_FLAG(hrtc, RTC_FLAG_WUTWF) == 0U)
 2009              		.loc 1 1112 3 is_stmt 1 discriminator 2 view .LVU649
 2010              	.L127:
 2011              		.loc 1 1112 10 is_stmt 0 view .LVU650
 2012 0038 2368     		ldr	r3, [r4]
 2013 003a DA68     		ldr	r2, [r3, #12]
 2014              		.loc 1 1112 9 view .LVU651
 2015 003c 12F0040F 		tst	r2, #4
 2016 0040 0DD1     		bne	.L131
1113:Drivers/STM32F3xx_HAL_Driver/Src/stm32f3xx_hal_rtc_ex.c ****   {
1114:Drivers/STM32F3xx_HAL_Driver/Src/stm32f3xx_hal_rtc_ex.c ****     if ((HAL_GetTick() - tickstart) > RTC_TIMEOUT_VALUE)
 2017              		.loc 1 1114 5 is_stmt 1 view .LVU652
 2018              		.loc 1 1114 10 is_stmt 0 view .LVU653
 2019 0042 FFF7FEFF 		bl	HAL_GetTick
 2020              	.LVL137:
 2021              		.loc 1 1114 24 view .LVU654
 2022 0046 401B     		subs	r0, r0, r5
 2023              		.loc 1 1114 8 view .LVU655
 2024 0048 B0F57A7F 		cmp	r0, #1000
 2025 004c F4D9     		bls	.L127
1115:Drivers/STM32F3xx_HAL_Driver/Src/stm32f3xx_hal_rtc_ex.c ****     {
1116:Drivers/STM32F3xx_HAL_Driver/Src/stm32f3xx_hal_rtc_ex.c ****       /* Enable the write protection for RTC registers */
1117:Drivers/STM32F3xx_HAL_Driver/Src/stm32f3xx_hal_rtc_ex.c ****       __HAL_RTC_WRITEPROTECTION_ENABLE(hrtc);
 2026              		.loc 1 1117 7 is_stmt 1 view .LVU656
 2027              		.loc 1 1117 7 view .LVU657
 2028 004e 2368     		ldr	r3, [r4]
 2029 0050 FF22     		movs	r2, #255
 2030 0052 5A62     		str	r2, [r3, #36]
1118:Drivers/STM32F3xx_HAL_Driver/Src/stm32f3xx_hal_rtc_ex.c **** 
1119:Drivers/STM32F3xx_HAL_Driver/Src/stm32f3xx_hal_rtc_ex.c ****       hrtc->State = HAL_RTC_STATE_TIMEOUT;
 2031              		.loc 1 1119 7 view .LVU658
 2032              		.loc 1 1119 19 is_stmt 0 view .LVU659
 2033 0054 0320     		movs	r0, #3
 2034 0056 6077     		strb	r0, [r4, #29]
1120:Drivers/STM32F3xx_HAL_Driver/Src/stm32f3xx_hal_rtc_ex.c **** 
1121:Drivers/STM32F3xx_HAL_Driver/Src/stm32f3xx_hal_rtc_ex.c ****       /* Process Unlocked */
1122:Drivers/STM32F3xx_HAL_Driver/Src/stm32f3xx_hal_rtc_ex.c ****       __HAL_UNLOCK(hrtc);
 2035              		.loc 1 1122 7 is_stmt 1 view .LVU660
 2036              		.loc 1 1122 7 view .LVU661
 2037 0058 0023     		movs	r3, #0
ARM GAS  /tmp/ccpBOonR.s 			page 58


 2038 005a 2377     		strb	r3, [r4, #28]
1123:Drivers/STM32F3xx_HAL_Driver/Src/stm32f3xx_hal_rtc_ex.c **** 
1124:Drivers/STM32F3xx_HAL_Driver/Src/stm32f3xx_hal_rtc_ex.c ****       return HAL_TIMEOUT;
 2039              		.loc 1 1124 7 view .LVU662
 2040              		.loc 1 1124 14 is_stmt 0 view .LVU663
 2041 005c 05E0     		b	.L126
 2042              	.L131:
1125:Drivers/STM32F3xx_HAL_Driver/Src/stm32f3xx_hal_rtc_ex.c ****     }
1126:Drivers/STM32F3xx_HAL_Driver/Src/stm32f3xx_hal_rtc_ex.c ****   }
1127:Drivers/STM32F3xx_HAL_Driver/Src/stm32f3xx_hal_rtc_ex.c **** 
1128:Drivers/STM32F3xx_HAL_Driver/Src/stm32f3xx_hal_rtc_ex.c ****   /* Enable the write protection for RTC registers */
1129:Drivers/STM32F3xx_HAL_Driver/Src/stm32f3xx_hal_rtc_ex.c ****   __HAL_RTC_WRITEPROTECTION_ENABLE(hrtc);
 2043              		.loc 1 1129 3 is_stmt 1 view .LVU664
 2044              		.loc 1 1129 3 view .LVU665
 2045 005e FF22     		movs	r2, #255
 2046 0060 5A62     		str	r2, [r3, #36]
1130:Drivers/STM32F3xx_HAL_Driver/Src/stm32f3xx_hal_rtc_ex.c **** 
1131:Drivers/STM32F3xx_HAL_Driver/Src/stm32f3xx_hal_rtc_ex.c ****   hrtc->State = HAL_RTC_STATE_READY;
 2047              		.loc 1 1131 3 view .LVU666
 2048              		.loc 1 1131 15 is_stmt 0 view .LVU667
 2049 0062 0123     		movs	r3, #1
 2050 0064 6377     		strb	r3, [r4, #29]
1132:Drivers/STM32F3xx_HAL_Driver/Src/stm32f3xx_hal_rtc_ex.c **** 
1133:Drivers/STM32F3xx_HAL_Driver/Src/stm32f3xx_hal_rtc_ex.c ****   /* Process Unlocked */
1134:Drivers/STM32F3xx_HAL_Driver/Src/stm32f3xx_hal_rtc_ex.c ****   __HAL_UNLOCK(hrtc);
 2051              		.loc 1 1134 3 is_stmt 1 view .LVU668
 2052              		.loc 1 1134 3 view .LVU669
 2053 0066 0020     		movs	r0, #0
 2054 0068 2077     		strb	r0, [r4, #28]
1135:Drivers/STM32F3xx_HAL_Driver/Src/stm32f3xx_hal_rtc_ex.c **** 
1136:Drivers/STM32F3xx_HAL_Driver/Src/stm32f3xx_hal_rtc_ex.c ****   return HAL_OK;
 2055              		.loc 1 1136 3 view .LVU670
 2056              	.LVL138:
 2057              	.L126:
1137:Drivers/STM32F3xx_HAL_Driver/Src/stm32f3xx_hal_rtc_ex.c **** }
 2058              		.loc 1 1137 1 is_stmt 0 view .LVU671
 2059 006a 38BD     		pop	{r3, r4, r5, pc}
 2060              	.LVL139:
 2061              	.L129:
1095:Drivers/STM32F3xx_HAL_Driver/Src/stm32f3xx_hal_rtc_ex.c **** 
 2062              		.loc 1 1095 3 view .LVU672
 2063 006c 0220     		movs	r0, #2
 2064              	.LVL140:
1095:Drivers/STM32F3xx_HAL_Driver/Src/stm32f3xx_hal_rtc_ex.c **** 
 2065              		.loc 1 1095 3 view .LVU673
 2066 006e FCE7     		b	.L126
 2067              		.cfi_endproc
 2068              	.LFE148:
 2070              		.section	.text.HAL_RTCEx_GetWakeUpTimer,"ax",%progbits
 2071              		.align	1
 2072              		.global	HAL_RTCEx_GetWakeUpTimer
 2073              		.syntax unified
 2074              		.thumb
 2075              		.thumb_func
 2076              		.fpu fpv4-sp-d16
 2078              	HAL_RTCEx_GetWakeUpTimer:
 2079              	.LVL141:
ARM GAS  /tmp/ccpBOonR.s 			page 59


 2080              	.LFB149:
1138:Drivers/STM32F3xx_HAL_Driver/Src/stm32f3xx_hal_rtc_ex.c **** 
1139:Drivers/STM32F3xx_HAL_Driver/Src/stm32f3xx_hal_rtc_ex.c **** /**
1140:Drivers/STM32F3xx_HAL_Driver/Src/stm32f3xx_hal_rtc_ex.c ****   * @brief  Gets wakeup timer counter.
1141:Drivers/STM32F3xx_HAL_Driver/Src/stm32f3xx_hal_rtc_ex.c ****   * @param  hrtc pointer to a RTC_HandleTypeDef structure that contains
1142:Drivers/STM32F3xx_HAL_Driver/Src/stm32f3xx_hal_rtc_ex.c ****   *                the configuration information for RTC.
1143:Drivers/STM32F3xx_HAL_Driver/Src/stm32f3xx_hal_rtc_ex.c ****   * @retval Counter value
1144:Drivers/STM32F3xx_HAL_Driver/Src/stm32f3xx_hal_rtc_ex.c ****   */
1145:Drivers/STM32F3xx_HAL_Driver/Src/stm32f3xx_hal_rtc_ex.c **** uint32_t HAL_RTCEx_GetWakeUpTimer(RTC_HandleTypeDef *hrtc)
1146:Drivers/STM32F3xx_HAL_Driver/Src/stm32f3xx_hal_rtc_ex.c **** {
 2081              		.loc 1 1146 1 is_stmt 1 view -0
 2082              		.cfi_startproc
 2083              		@ args = 0, pretend = 0, frame = 0
 2084              		@ frame_needed = 0, uses_anonymous_args = 0
 2085              		@ link register save eliminated.
1147:Drivers/STM32F3xx_HAL_Driver/Src/stm32f3xx_hal_rtc_ex.c ****   /* Get the counter value */
1148:Drivers/STM32F3xx_HAL_Driver/Src/stm32f3xx_hal_rtc_ex.c ****   return ((uint32_t)(hrtc->Instance->WUTR & RTC_WUTR_WUT));
 2086              		.loc 1 1148 3 view .LVU675
 2087              		.loc 1 1148 26 is_stmt 0 view .LVU676
 2088 0000 0368     		ldr	r3, [r0]
 2089              		.loc 1 1148 36 view .LVU677
 2090 0002 5869     		ldr	r0, [r3, #20]
 2091              	.LVL142:
1149:Drivers/STM32F3xx_HAL_Driver/Src/stm32f3xx_hal_rtc_ex.c **** }
 2092              		.loc 1 1149 1 view .LVU678
 2093 0004 80B2     		uxth	r0, r0
 2094 0006 7047     		bx	lr
 2095              		.cfi_endproc
 2096              	.LFE149:
 2098              		.section	.text.HAL_RTCEx_WakeUpTimerEventCallback,"ax",%progbits
 2099              		.align	1
 2100              		.weak	HAL_RTCEx_WakeUpTimerEventCallback
 2101              		.syntax unified
 2102              		.thumb
 2103              		.thumb_func
 2104              		.fpu fpv4-sp-d16
 2106              	HAL_RTCEx_WakeUpTimerEventCallback:
 2107              	.LVL143:
 2108              	.LFB151:
1150:Drivers/STM32F3xx_HAL_Driver/Src/stm32f3xx_hal_rtc_ex.c **** 
1151:Drivers/STM32F3xx_HAL_Driver/Src/stm32f3xx_hal_rtc_ex.c **** /**
1152:Drivers/STM32F3xx_HAL_Driver/Src/stm32f3xx_hal_rtc_ex.c ****   * @brief  Handles Wakeup Timer interrupt request.
1153:Drivers/STM32F3xx_HAL_Driver/Src/stm32f3xx_hal_rtc_ex.c ****   * @note   Unlike alarm interrupt line (shared by Alarms A and B) or tamper
1154:Drivers/STM32F3xx_HAL_Driver/Src/stm32f3xx_hal_rtc_ex.c ****   *         interrupt line (shared by timestamp and tampers) wakeup timer
1155:Drivers/STM32F3xx_HAL_Driver/Src/stm32f3xx_hal_rtc_ex.c ****   *         interrupt line is exclusive to the wakeup timer.
1156:Drivers/STM32F3xx_HAL_Driver/Src/stm32f3xx_hal_rtc_ex.c ****   *         There is no need in this case to check on the interrupt enable
1157:Drivers/STM32F3xx_HAL_Driver/Src/stm32f3xx_hal_rtc_ex.c ****   *         status via __HAL_RTC_WAKEUPTIMER_GET_IT_SOURCE().
1158:Drivers/STM32F3xx_HAL_Driver/Src/stm32f3xx_hal_rtc_ex.c ****   * @param  hrtc pointer to a RTC_HandleTypeDef structure that contains
1159:Drivers/STM32F3xx_HAL_Driver/Src/stm32f3xx_hal_rtc_ex.c ****   *                the configuration information for RTC.
1160:Drivers/STM32F3xx_HAL_Driver/Src/stm32f3xx_hal_rtc_ex.c ****   * @retval None
1161:Drivers/STM32F3xx_HAL_Driver/Src/stm32f3xx_hal_rtc_ex.c ****   */
1162:Drivers/STM32F3xx_HAL_Driver/Src/stm32f3xx_hal_rtc_ex.c **** void HAL_RTCEx_WakeUpTimerIRQHandler(RTC_HandleTypeDef *hrtc)
1163:Drivers/STM32F3xx_HAL_Driver/Src/stm32f3xx_hal_rtc_ex.c **** {
1164:Drivers/STM32F3xx_HAL_Driver/Src/stm32f3xx_hal_rtc_ex.c ****   /* Clear the EXTI's line Flag for RTC WakeUpTimer */
1165:Drivers/STM32F3xx_HAL_Driver/Src/stm32f3xx_hal_rtc_ex.c ****   __HAL_RTC_WAKEUPTIMER_EXTI_CLEAR_FLAG();
1166:Drivers/STM32F3xx_HAL_Driver/Src/stm32f3xx_hal_rtc_ex.c **** 
1167:Drivers/STM32F3xx_HAL_Driver/Src/stm32f3xx_hal_rtc_ex.c ****   /* Get the pending status of the Wakeup timer Interrupt */
ARM GAS  /tmp/ccpBOonR.s 			page 60


1168:Drivers/STM32F3xx_HAL_Driver/Src/stm32f3xx_hal_rtc_ex.c ****   if (__HAL_RTC_WAKEUPTIMER_GET_FLAG(hrtc, RTC_FLAG_WUTF) != 0U)
1169:Drivers/STM32F3xx_HAL_Driver/Src/stm32f3xx_hal_rtc_ex.c ****   {
1170:Drivers/STM32F3xx_HAL_Driver/Src/stm32f3xx_hal_rtc_ex.c ****     /* Clear the Wakeup timer interrupt pending bit */
1171:Drivers/STM32F3xx_HAL_Driver/Src/stm32f3xx_hal_rtc_ex.c ****     __HAL_RTC_WAKEUPTIMER_CLEAR_FLAG(hrtc, RTC_FLAG_WUTF);
1172:Drivers/STM32F3xx_HAL_Driver/Src/stm32f3xx_hal_rtc_ex.c **** 
1173:Drivers/STM32F3xx_HAL_Driver/Src/stm32f3xx_hal_rtc_ex.c ****     /* Wakeup timer callback */
1174:Drivers/STM32F3xx_HAL_Driver/Src/stm32f3xx_hal_rtc_ex.c **** #if (USE_HAL_RTC_REGISTER_CALLBACKS == 1)
1175:Drivers/STM32F3xx_HAL_Driver/Src/stm32f3xx_hal_rtc_ex.c ****     hrtc->WakeUpTimerEventCallback(hrtc);
1176:Drivers/STM32F3xx_HAL_Driver/Src/stm32f3xx_hal_rtc_ex.c **** #else
1177:Drivers/STM32F3xx_HAL_Driver/Src/stm32f3xx_hal_rtc_ex.c ****     HAL_RTCEx_WakeUpTimerEventCallback(hrtc);
1178:Drivers/STM32F3xx_HAL_Driver/Src/stm32f3xx_hal_rtc_ex.c **** #endif /* USE_HAL_RTC_REGISTER_CALLBACKS */
1179:Drivers/STM32F3xx_HAL_Driver/Src/stm32f3xx_hal_rtc_ex.c ****   }
1180:Drivers/STM32F3xx_HAL_Driver/Src/stm32f3xx_hal_rtc_ex.c **** 
1181:Drivers/STM32F3xx_HAL_Driver/Src/stm32f3xx_hal_rtc_ex.c ****   /* Change RTC state */
1182:Drivers/STM32F3xx_HAL_Driver/Src/stm32f3xx_hal_rtc_ex.c ****   hrtc->State = HAL_RTC_STATE_READY;
1183:Drivers/STM32F3xx_HAL_Driver/Src/stm32f3xx_hal_rtc_ex.c **** }
1184:Drivers/STM32F3xx_HAL_Driver/Src/stm32f3xx_hal_rtc_ex.c **** 
1185:Drivers/STM32F3xx_HAL_Driver/Src/stm32f3xx_hal_rtc_ex.c **** /**
1186:Drivers/STM32F3xx_HAL_Driver/Src/stm32f3xx_hal_rtc_ex.c ****   * @brief  Wakeup Timer callback.
1187:Drivers/STM32F3xx_HAL_Driver/Src/stm32f3xx_hal_rtc_ex.c ****   * @param  hrtc pointer to a RTC_HandleTypeDef structure that contains
1188:Drivers/STM32F3xx_HAL_Driver/Src/stm32f3xx_hal_rtc_ex.c ****   *                the configuration information for RTC.
1189:Drivers/STM32F3xx_HAL_Driver/Src/stm32f3xx_hal_rtc_ex.c ****   * @retval None
1190:Drivers/STM32F3xx_HAL_Driver/Src/stm32f3xx_hal_rtc_ex.c ****   */
1191:Drivers/STM32F3xx_HAL_Driver/Src/stm32f3xx_hal_rtc_ex.c **** __weak void HAL_RTCEx_WakeUpTimerEventCallback(RTC_HandleTypeDef *hrtc)
1192:Drivers/STM32F3xx_HAL_Driver/Src/stm32f3xx_hal_rtc_ex.c **** {
 2109              		.loc 1 1192 1 is_stmt 1 view -0
 2110              		.cfi_startproc
 2111              		@ args = 0, pretend = 0, frame = 0
 2112              		@ frame_needed = 0, uses_anonymous_args = 0
 2113              		@ link register save eliminated.
1193:Drivers/STM32F3xx_HAL_Driver/Src/stm32f3xx_hal_rtc_ex.c ****   /* Prevent unused argument(s) compilation warning */
1194:Drivers/STM32F3xx_HAL_Driver/Src/stm32f3xx_hal_rtc_ex.c ****   UNUSED(hrtc);
 2114              		.loc 1 1194 3 view .LVU680
1195:Drivers/STM32F3xx_HAL_Driver/Src/stm32f3xx_hal_rtc_ex.c **** 
1196:Drivers/STM32F3xx_HAL_Driver/Src/stm32f3xx_hal_rtc_ex.c ****   /* NOTE: This function should not be modified, when the callback is needed,
1197:Drivers/STM32F3xx_HAL_Driver/Src/stm32f3xx_hal_rtc_ex.c ****            the HAL_RTCEx_WakeUpTimerEventCallback could be implemented in the user file
1198:Drivers/STM32F3xx_HAL_Driver/Src/stm32f3xx_hal_rtc_ex.c ****    */
1199:Drivers/STM32F3xx_HAL_Driver/Src/stm32f3xx_hal_rtc_ex.c **** }
 2115              		.loc 1 1199 1 is_stmt 0 view .LVU681
 2116 0000 7047     		bx	lr
 2117              		.cfi_endproc
 2118              	.LFE151:
 2120              		.section	.text.HAL_RTCEx_WakeUpTimerIRQHandler,"ax",%progbits
 2121              		.align	1
 2122              		.global	HAL_RTCEx_WakeUpTimerIRQHandler
 2123              		.syntax unified
 2124              		.thumb
 2125              		.thumb_func
 2126              		.fpu fpv4-sp-d16
 2128              	HAL_RTCEx_WakeUpTimerIRQHandler:
 2129              	.LVL144:
 2130              	.LFB150:
1163:Drivers/STM32F3xx_HAL_Driver/Src/stm32f3xx_hal_rtc_ex.c ****   /* Clear the EXTI's line Flag for RTC WakeUpTimer */
 2131              		.loc 1 1163 1 is_stmt 1 view -0
 2132              		.cfi_startproc
 2133              		@ args = 0, pretend = 0, frame = 0
 2134              		@ frame_needed = 0, uses_anonymous_args = 0
ARM GAS  /tmp/ccpBOonR.s 			page 61


1163:Drivers/STM32F3xx_HAL_Driver/Src/stm32f3xx_hal_rtc_ex.c ****   /* Clear the EXTI's line Flag for RTC WakeUpTimer */
 2135              		.loc 1 1163 1 is_stmt 0 view .LVU683
 2136 0000 10B5     		push	{r4, lr}
 2137              	.LCFI27:
 2138              		.cfi_def_cfa_offset 8
 2139              		.cfi_offset 4, -8
 2140              		.cfi_offset 14, -4
 2141 0002 0446     		mov	r4, r0
1165:Drivers/STM32F3xx_HAL_Driver/Src/stm32f3xx_hal_rtc_ex.c **** 
 2142              		.loc 1 1165 3 is_stmt 1 view .LVU684
 2143 0004 094B     		ldr	r3, .L138
 2144 0006 4FF48012 		mov	r2, #1048576
 2145 000a 5A61     		str	r2, [r3, #20]
1168:Drivers/STM32F3xx_HAL_Driver/Src/stm32f3xx_hal_rtc_ex.c ****   {
 2146              		.loc 1 1168 3 view .LVU685
1168:Drivers/STM32F3xx_HAL_Driver/Src/stm32f3xx_hal_rtc_ex.c ****   {
 2147              		.loc 1 1168 7 is_stmt 0 view .LVU686
 2148 000c 0368     		ldr	r3, [r0]
 2149 000e DA68     		ldr	r2, [r3, #12]
1168:Drivers/STM32F3xx_HAL_Driver/Src/stm32f3xx_hal_rtc_ex.c ****   {
 2150              		.loc 1 1168 6 view .LVU687
 2151 0010 12F4806F 		tst	r2, #1024
 2152 0014 02D1     		bne	.L137
 2153              	.LVL145:
 2154              	.L135:
1182:Drivers/STM32F3xx_HAL_Driver/Src/stm32f3xx_hal_rtc_ex.c **** }
 2155              		.loc 1 1182 3 is_stmt 1 view .LVU688
1182:Drivers/STM32F3xx_HAL_Driver/Src/stm32f3xx_hal_rtc_ex.c **** }
 2156              		.loc 1 1182 15 is_stmt 0 view .LVU689
 2157 0016 0123     		movs	r3, #1
 2158 0018 6377     		strb	r3, [r4, #29]
1183:Drivers/STM32F3xx_HAL_Driver/Src/stm32f3xx_hal_rtc_ex.c **** 
 2159              		.loc 1 1183 1 view .LVU690
 2160 001a 10BD     		pop	{r4, pc}
 2161              	.LVL146:
 2162              	.L137:
1171:Drivers/STM32F3xx_HAL_Driver/Src/stm32f3xx_hal_rtc_ex.c **** 
 2163              		.loc 1 1171 5 is_stmt 1 view .LVU691
 2164 001c DA68     		ldr	r2, [r3, #12]
 2165 001e D2B2     		uxtb	r2, r2
 2166 0020 62F49062 		orn	r2, r2, #1152
 2167 0024 DA60     		str	r2, [r3, #12]
1177:Drivers/STM32F3xx_HAL_Driver/Src/stm32f3xx_hal_rtc_ex.c **** #endif /* USE_HAL_RTC_REGISTER_CALLBACKS */
 2168              		.loc 1 1177 5 view .LVU692
 2169 0026 FFF7FEFF 		bl	HAL_RTCEx_WakeUpTimerEventCallback
 2170              	.LVL147:
1177:Drivers/STM32F3xx_HAL_Driver/Src/stm32f3xx_hal_rtc_ex.c **** #endif /* USE_HAL_RTC_REGISTER_CALLBACKS */
 2171              		.loc 1 1177 5 is_stmt 0 view .LVU693
 2172 002a F4E7     		b	.L135
 2173              	.L139:
 2174              		.align	2
 2175              	.L138:
 2176 002c 00040140 		.word	1073808384
 2177              		.cfi_endproc
 2178              	.LFE150:
 2180              		.section	.text.HAL_RTCEx_PollForWakeUpTimerEvent,"ax",%progbits
 2181              		.align	1
ARM GAS  /tmp/ccpBOonR.s 			page 62


 2182              		.global	HAL_RTCEx_PollForWakeUpTimerEvent
 2183              		.syntax unified
 2184              		.thumb
 2185              		.thumb_func
 2186              		.fpu fpv4-sp-d16
 2188              	HAL_RTCEx_PollForWakeUpTimerEvent:
 2189              	.LVL148:
 2190              	.LFB152:
1200:Drivers/STM32F3xx_HAL_Driver/Src/stm32f3xx_hal_rtc_ex.c **** 
1201:Drivers/STM32F3xx_HAL_Driver/Src/stm32f3xx_hal_rtc_ex.c **** /**
1202:Drivers/STM32F3xx_HAL_Driver/Src/stm32f3xx_hal_rtc_ex.c ****   * @brief  Handles Wakeup Timer Polling.
1203:Drivers/STM32F3xx_HAL_Driver/Src/stm32f3xx_hal_rtc_ex.c ****   * @param  hrtc pointer to a RTC_HandleTypeDef structure that contains
1204:Drivers/STM32F3xx_HAL_Driver/Src/stm32f3xx_hal_rtc_ex.c ****   *                the configuration information for RTC.
1205:Drivers/STM32F3xx_HAL_Driver/Src/stm32f3xx_hal_rtc_ex.c ****   * @param  Timeout Timeout duration
1206:Drivers/STM32F3xx_HAL_Driver/Src/stm32f3xx_hal_rtc_ex.c ****   * @retval HAL status
1207:Drivers/STM32F3xx_HAL_Driver/Src/stm32f3xx_hal_rtc_ex.c ****   */
1208:Drivers/STM32F3xx_HAL_Driver/Src/stm32f3xx_hal_rtc_ex.c **** HAL_StatusTypeDef HAL_RTCEx_PollForWakeUpTimerEvent(RTC_HandleTypeDef *hrtc, uint32_t Timeout)
1209:Drivers/STM32F3xx_HAL_Driver/Src/stm32f3xx_hal_rtc_ex.c **** {
 2191              		.loc 1 1209 1 is_stmt 1 view -0
 2192              		.cfi_startproc
 2193              		@ args = 0, pretend = 0, frame = 0
 2194              		@ frame_needed = 0, uses_anonymous_args = 0
 2195              		.loc 1 1209 1 is_stmt 0 view .LVU695
 2196 0000 70B5     		push	{r4, r5, r6, lr}
 2197              	.LCFI28:
 2198              		.cfi_def_cfa_offset 16
 2199              		.cfi_offset 4, -16
 2200              		.cfi_offset 5, -12
 2201              		.cfi_offset 6, -8
 2202              		.cfi_offset 14, -4
 2203 0002 0446     		mov	r4, r0
 2204 0004 0D46     		mov	r5, r1
1210:Drivers/STM32F3xx_HAL_Driver/Src/stm32f3xx_hal_rtc_ex.c ****   uint32_t tickstart = 0U;
 2205              		.loc 1 1210 3 is_stmt 1 view .LVU696
 2206              	.LVL149:
1211:Drivers/STM32F3xx_HAL_Driver/Src/stm32f3xx_hal_rtc_ex.c **** 
1212:Drivers/STM32F3xx_HAL_Driver/Src/stm32f3xx_hal_rtc_ex.c ****   /* Get tick */
1213:Drivers/STM32F3xx_HAL_Driver/Src/stm32f3xx_hal_rtc_ex.c ****   tickstart = HAL_GetTick();
 2207              		.loc 1 1213 3 view .LVU697
 2208              		.loc 1 1213 15 is_stmt 0 view .LVU698
 2209 0006 FFF7FEFF 		bl	HAL_GetTick
 2210              	.LVL150:
 2211              		.loc 1 1213 15 view .LVU699
 2212 000a 0646     		mov	r6, r0
 2213              	.LVL151:
1214:Drivers/STM32F3xx_HAL_Driver/Src/stm32f3xx_hal_rtc_ex.c **** 
1215:Drivers/STM32F3xx_HAL_Driver/Src/stm32f3xx_hal_rtc_ex.c ****   while (__HAL_RTC_WAKEUPTIMER_GET_FLAG(hrtc, RTC_FLAG_WUTF) == 0U)
 2214              		.loc 1 1215 3 is_stmt 1 view .LVU700
 2215              	.L142:
 2216              		.loc 1 1215 10 is_stmt 0 view .LVU701
 2217 000c 2368     		ldr	r3, [r4]
 2218 000e DA68     		ldr	r2, [r3, #12]
 2219              		.loc 1 1215 9 view .LVU702
 2220 0010 12F4806F 		tst	r2, #1024
 2221 0014 0BD1     		bne	.L147
1216:Drivers/STM32F3xx_HAL_Driver/Src/stm32f3xx_hal_rtc_ex.c ****   {
1217:Drivers/STM32F3xx_HAL_Driver/Src/stm32f3xx_hal_rtc_ex.c ****     if (Timeout != HAL_MAX_DELAY)
ARM GAS  /tmp/ccpBOonR.s 			page 63


 2222              		.loc 1 1217 5 is_stmt 1 view .LVU703
 2223              		.loc 1 1217 8 is_stmt 0 view .LVU704
 2224 0016 B5F1FF3F 		cmp	r5, #-1
 2225 001a F7D0     		beq	.L142
1218:Drivers/STM32F3xx_HAL_Driver/Src/stm32f3xx_hal_rtc_ex.c ****     {
1219:Drivers/STM32F3xx_HAL_Driver/Src/stm32f3xx_hal_rtc_ex.c ****       if ((Timeout == 0U) || ((HAL_GetTick() - tickstart) > Timeout))
 2226              		.loc 1 1219 7 is_stmt 1 view .LVU705
 2227              		.loc 1 1219 10 is_stmt 0 view .LVU706
 2228 001c 25B1     		cbz	r5, .L143
 2229              		.loc 1 1219 32 discriminator 1 view .LVU707
 2230 001e FFF7FEFF 		bl	HAL_GetTick
 2231              	.LVL152:
 2232              		.loc 1 1219 46 discriminator 1 view .LVU708
 2233 0022 801B     		subs	r0, r0, r6
 2234              		.loc 1 1219 27 discriminator 1 view .LVU709
 2235 0024 A842     		cmp	r0, r5
 2236 0026 F1D9     		bls	.L142
 2237              	.L143:
1220:Drivers/STM32F3xx_HAL_Driver/Src/stm32f3xx_hal_rtc_ex.c ****       {
1221:Drivers/STM32F3xx_HAL_Driver/Src/stm32f3xx_hal_rtc_ex.c ****         hrtc->State = HAL_RTC_STATE_TIMEOUT;
 2238              		.loc 1 1221 9 is_stmt 1 view .LVU710
 2239              		.loc 1 1221 21 is_stmt 0 view .LVU711
 2240 0028 0320     		movs	r0, #3
 2241 002a 6077     		strb	r0, [r4, #29]
1222:Drivers/STM32F3xx_HAL_Driver/Src/stm32f3xx_hal_rtc_ex.c ****         return HAL_TIMEOUT;
 2242              		.loc 1 1222 9 is_stmt 1 view .LVU712
 2243              		.loc 1 1222 16 is_stmt 0 view .LVU713
 2244 002c 07E0     		b	.L144
 2245              	.L147:
1223:Drivers/STM32F3xx_HAL_Driver/Src/stm32f3xx_hal_rtc_ex.c ****       }
1224:Drivers/STM32F3xx_HAL_Driver/Src/stm32f3xx_hal_rtc_ex.c ****     }
1225:Drivers/STM32F3xx_HAL_Driver/Src/stm32f3xx_hal_rtc_ex.c ****   }
1226:Drivers/STM32F3xx_HAL_Driver/Src/stm32f3xx_hal_rtc_ex.c **** 
1227:Drivers/STM32F3xx_HAL_Driver/Src/stm32f3xx_hal_rtc_ex.c ****   /* Clear the Wakeup timer Flag */
1228:Drivers/STM32F3xx_HAL_Driver/Src/stm32f3xx_hal_rtc_ex.c ****   __HAL_RTC_WAKEUPTIMER_CLEAR_FLAG(hrtc, RTC_FLAG_WUTF);
 2246              		.loc 1 1228 3 is_stmt 1 view .LVU714
 2247 002e DA68     		ldr	r2, [r3, #12]
 2248 0030 D2B2     		uxtb	r2, r2
 2249 0032 62F49062 		orn	r2, r2, #1152
 2250 0036 DA60     		str	r2, [r3, #12]
1229:Drivers/STM32F3xx_HAL_Driver/Src/stm32f3xx_hal_rtc_ex.c **** 
1230:Drivers/STM32F3xx_HAL_Driver/Src/stm32f3xx_hal_rtc_ex.c ****   /* Change RTC state */
1231:Drivers/STM32F3xx_HAL_Driver/Src/stm32f3xx_hal_rtc_ex.c ****   hrtc->State = HAL_RTC_STATE_READY;
 2251              		.loc 1 1231 3 view .LVU715
 2252              		.loc 1 1231 15 is_stmt 0 view .LVU716
 2253 0038 0123     		movs	r3, #1
 2254 003a 6377     		strb	r3, [r4, #29]
1232:Drivers/STM32F3xx_HAL_Driver/Src/stm32f3xx_hal_rtc_ex.c **** 
1233:Drivers/STM32F3xx_HAL_Driver/Src/stm32f3xx_hal_rtc_ex.c ****   return HAL_OK;
 2255              		.loc 1 1233 3 is_stmt 1 view .LVU717
 2256              		.loc 1 1233 10 is_stmt 0 view .LVU718
 2257 003c 0020     		movs	r0, #0
 2258              	.L144:
1234:Drivers/STM32F3xx_HAL_Driver/Src/stm32f3xx_hal_rtc_ex.c **** }
 2259              		.loc 1 1234 1 view .LVU719
 2260 003e 70BD     		pop	{r4, r5, r6, pc}
 2261              		.loc 1 1234 1 view .LVU720
ARM GAS  /tmp/ccpBOonR.s 			page 64


 2262              		.cfi_endproc
 2263              	.LFE152:
 2265              		.section	.text.HAL_RTCEx_BKUPWrite,"ax",%progbits
 2266              		.align	1
 2267              		.global	HAL_RTCEx_BKUPWrite
 2268              		.syntax unified
 2269              		.thumb
 2270              		.thumb_func
 2271              		.fpu fpv4-sp-d16
 2273              	HAL_RTCEx_BKUPWrite:
 2274              	.LVL153:
 2275              	.LFB153:
1235:Drivers/STM32F3xx_HAL_Driver/Src/stm32f3xx_hal_rtc_ex.c **** 
1236:Drivers/STM32F3xx_HAL_Driver/Src/stm32f3xx_hal_rtc_ex.c **** /**
1237:Drivers/STM32F3xx_HAL_Driver/Src/stm32f3xx_hal_rtc_ex.c ****   * @}
1238:Drivers/STM32F3xx_HAL_Driver/Src/stm32f3xx_hal_rtc_ex.c ****   */
1239:Drivers/STM32F3xx_HAL_Driver/Src/stm32f3xx_hal_rtc_ex.c **** 
1240:Drivers/STM32F3xx_HAL_Driver/Src/stm32f3xx_hal_rtc_ex.c **** /** @defgroup RTCEx_Exported_Functions_Group3 Extended Peripheral Control functions
1241:Drivers/STM32F3xx_HAL_Driver/Src/stm32f3xx_hal_rtc_ex.c ****   * @brief    Extended Peripheral Control functions
1242:Drivers/STM32F3xx_HAL_Driver/Src/stm32f3xx_hal_rtc_ex.c ****   *
1243:Drivers/STM32F3xx_HAL_Driver/Src/stm32f3xx_hal_rtc_ex.c **** @verbatim
1244:Drivers/STM32F3xx_HAL_Driver/Src/stm32f3xx_hal_rtc_ex.c ****  ===============================================================================
1245:Drivers/STM32F3xx_HAL_Driver/Src/stm32f3xx_hal_rtc_ex.c ****               ##### Extended Peripheral Control functions #####
1246:Drivers/STM32F3xx_HAL_Driver/Src/stm32f3xx_hal_rtc_ex.c ****  ===============================================================================
1247:Drivers/STM32F3xx_HAL_Driver/Src/stm32f3xx_hal_rtc_ex.c ****     [..]
1248:Drivers/STM32F3xx_HAL_Driver/Src/stm32f3xx_hal_rtc_ex.c ****     This subsection provides functions allowing to
1249:Drivers/STM32F3xx_HAL_Driver/Src/stm32f3xx_hal_rtc_ex.c ****       (+) Write a data in a specified RTC Backup data register
1250:Drivers/STM32F3xx_HAL_Driver/Src/stm32f3xx_hal_rtc_ex.c ****       (+) Read a data in a specified RTC Backup data register
1251:Drivers/STM32F3xx_HAL_Driver/Src/stm32f3xx_hal_rtc_ex.c ****       (+) Set the Smooth calibration parameters.
1252:Drivers/STM32F3xx_HAL_Driver/Src/stm32f3xx_hal_rtc_ex.c ****       (+) Configure the Synchronization Shift Control Settings.
1253:Drivers/STM32F3xx_HAL_Driver/Src/stm32f3xx_hal_rtc_ex.c ****       (+) Configure the Calibration Pinout (RTC_CALIB) Selection (1Hz or 512Hz).
1254:Drivers/STM32F3xx_HAL_Driver/Src/stm32f3xx_hal_rtc_ex.c ****       (+) Deactivate the Calibration Pinout (RTC_CALIB) Selection (1Hz or 512Hz).
1255:Drivers/STM32F3xx_HAL_Driver/Src/stm32f3xx_hal_rtc_ex.c ****       (+) Enable the RTC reference clock detection.
1256:Drivers/STM32F3xx_HAL_Driver/Src/stm32f3xx_hal_rtc_ex.c ****       (+) Disable the RTC reference clock detection.
1257:Drivers/STM32F3xx_HAL_Driver/Src/stm32f3xx_hal_rtc_ex.c ****       (+) Enable the Bypass Shadow feature.
1258:Drivers/STM32F3xx_HAL_Driver/Src/stm32f3xx_hal_rtc_ex.c ****       (+) Disable the Bypass Shadow feature.
1259:Drivers/STM32F3xx_HAL_Driver/Src/stm32f3xx_hal_rtc_ex.c **** 
1260:Drivers/STM32F3xx_HAL_Driver/Src/stm32f3xx_hal_rtc_ex.c **** @endverbatim
1261:Drivers/STM32F3xx_HAL_Driver/Src/stm32f3xx_hal_rtc_ex.c ****   * @{
1262:Drivers/STM32F3xx_HAL_Driver/Src/stm32f3xx_hal_rtc_ex.c ****   */
1263:Drivers/STM32F3xx_HAL_Driver/Src/stm32f3xx_hal_rtc_ex.c **** 
1264:Drivers/STM32F3xx_HAL_Driver/Src/stm32f3xx_hal_rtc_ex.c **** /**
1265:Drivers/STM32F3xx_HAL_Driver/Src/stm32f3xx_hal_rtc_ex.c ****   * @brief  Writes a data in a specified RTC Backup data register.
1266:Drivers/STM32F3xx_HAL_Driver/Src/stm32f3xx_hal_rtc_ex.c ****   * @param  hrtc pointer to a RTC_HandleTypeDef structure that contains
1267:Drivers/STM32F3xx_HAL_Driver/Src/stm32f3xx_hal_rtc_ex.c ****   *                the configuration information for RTC.
1268:Drivers/STM32F3xx_HAL_Driver/Src/stm32f3xx_hal_rtc_ex.c ****   * @param  BackupRegister RTC Backup data Register number.
1269:Drivers/STM32F3xx_HAL_Driver/Src/stm32f3xx_hal_rtc_ex.c ****   *          This parameter can be: RTC_BKP_DRx (where x can be from 0 to 15)
1270:Drivers/STM32F3xx_HAL_Driver/Src/stm32f3xx_hal_rtc_ex.c ****   *                                 to specify the register.
1271:Drivers/STM32F3xx_HAL_Driver/Src/stm32f3xx_hal_rtc_ex.c ****   * @note   The range of values possible for parameter BackupRegister depends on
1272:Drivers/STM32F3xx_HAL_Driver/Src/stm32f3xx_hal_rtc_ex.c ****   *         the total number of Backup data Registers. This total number is not
1273:Drivers/STM32F3xx_HAL_Driver/Src/stm32f3xx_hal_rtc_ex.c ****   *         the same on all devices.
1274:Drivers/STM32F3xx_HAL_Driver/Src/stm32f3xx_hal_rtc_ex.c ****   * @param  Data Data to be written in the specified RTC Backup data register.
1275:Drivers/STM32F3xx_HAL_Driver/Src/stm32f3xx_hal_rtc_ex.c ****   * @retval None
1276:Drivers/STM32F3xx_HAL_Driver/Src/stm32f3xx_hal_rtc_ex.c ****   */
1277:Drivers/STM32F3xx_HAL_Driver/Src/stm32f3xx_hal_rtc_ex.c **** void HAL_RTCEx_BKUPWrite(RTC_HandleTypeDef *hrtc, uint32_t BackupRegister, uint32_t Data)
1278:Drivers/STM32F3xx_HAL_Driver/Src/stm32f3xx_hal_rtc_ex.c **** {
 2276              		.loc 1 1278 1 is_stmt 1 view -0
ARM GAS  /tmp/ccpBOonR.s 			page 65


 2277              		.cfi_startproc
 2278              		@ args = 0, pretend = 0, frame = 0
 2279              		@ frame_needed = 0, uses_anonymous_args = 0
 2280              		@ link register save eliminated.
1279:Drivers/STM32F3xx_HAL_Driver/Src/stm32f3xx_hal_rtc_ex.c ****   uint32_t tmp = 0U;
 2281              		.loc 1 1279 3 view .LVU722
1280:Drivers/STM32F3xx_HAL_Driver/Src/stm32f3xx_hal_rtc_ex.c **** 
1281:Drivers/STM32F3xx_HAL_Driver/Src/stm32f3xx_hal_rtc_ex.c ****   /* Check the parameters */
1282:Drivers/STM32F3xx_HAL_Driver/Src/stm32f3xx_hal_rtc_ex.c ****   assert_param(IS_RTC_BKP(BackupRegister));
 2282              		.loc 1 1282 3 view .LVU723
1283:Drivers/STM32F3xx_HAL_Driver/Src/stm32f3xx_hal_rtc_ex.c **** 
1284:Drivers/STM32F3xx_HAL_Driver/Src/stm32f3xx_hal_rtc_ex.c ****   tmp = (uint32_t) & (hrtc->Instance->BKP0R);
 2283              		.loc 1 1284 3 view .LVU724
 2284              		.loc 1 1284 27 is_stmt 0 view .LVU725
 2285 0000 0368     		ldr	r3, [r0]
 2286              		.loc 1 1284 20 view .LVU726
 2287 0002 5033     		adds	r3, r3, #80
 2288              	.LVL154:
1285:Drivers/STM32F3xx_HAL_Driver/Src/stm32f3xx_hal_rtc_ex.c ****   tmp += (BackupRegister * 4U);
 2289              		.loc 1 1285 3 is_stmt 1 view .LVU727
1286:Drivers/STM32F3xx_HAL_Driver/Src/stm32f3xx_hal_rtc_ex.c **** 
1287:Drivers/STM32F3xx_HAL_Driver/Src/stm32f3xx_hal_rtc_ex.c ****   /* Write the specified register */
1288:Drivers/STM32F3xx_HAL_Driver/Src/stm32f3xx_hal_rtc_ex.c ****   *(__IO uint32_t *)tmp = (uint32_t)Data;
 2290              		.loc 1 1288 3 view .LVU728
 2291              		.loc 1 1288 25 is_stmt 0 view .LVU729
 2292 0004 43F82120 		str	r2, [r3, r1, lsl #2]
1289:Drivers/STM32F3xx_HAL_Driver/Src/stm32f3xx_hal_rtc_ex.c **** }
 2293              		.loc 1 1289 1 view .LVU730
 2294 0008 7047     		bx	lr
 2295              		.cfi_endproc
 2296              	.LFE153:
 2298              		.section	.text.HAL_RTCEx_BKUPRead,"ax",%progbits
 2299              		.align	1
 2300              		.global	HAL_RTCEx_BKUPRead
 2301              		.syntax unified
 2302              		.thumb
 2303              		.thumb_func
 2304              		.fpu fpv4-sp-d16
 2306              	HAL_RTCEx_BKUPRead:
 2307              	.LVL155:
 2308              	.LFB154:
1290:Drivers/STM32F3xx_HAL_Driver/Src/stm32f3xx_hal_rtc_ex.c **** 
1291:Drivers/STM32F3xx_HAL_Driver/Src/stm32f3xx_hal_rtc_ex.c **** /**
1292:Drivers/STM32F3xx_HAL_Driver/Src/stm32f3xx_hal_rtc_ex.c ****   * @brief  Reads data from the specified RTC Backup data Register.
1293:Drivers/STM32F3xx_HAL_Driver/Src/stm32f3xx_hal_rtc_ex.c ****   * @param  hrtc pointer to a RTC_HandleTypeDef structure that contains
1294:Drivers/STM32F3xx_HAL_Driver/Src/stm32f3xx_hal_rtc_ex.c ****   *                the configuration information for RTC.
1295:Drivers/STM32F3xx_HAL_Driver/Src/stm32f3xx_hal_rtc_ex.c ****   * @param  BackupRegister RTC Backup data Register number.
1296:Drivers/STM32F3xx_HAL_Driver/Src/stm32f3xx_hal_rtc_ex.c ****   *          This parameter can be: RTC_BKP_DRx (where x can be from 0 to 15)
1297:Drivers/STM32F3xx_HAL_Driver/Src/stm32f3xx_hal_rtc_ex.c ****   *                                 to specify the register.
1298:Drivers/STM32F3xx_HAL_Driver/Src/stm32f3xx_hal_rtc_ex.c ****   * @note   The range of values possible for parameter BackupRegister depends on
1299:Drivers/STM32F3xx_HAL_Driver/Src/stm32f3xx_hal_rtc_ex.c ****   *         the total number of Backup data Registers. This total number is not
1300:Drivers/STM32F3xx_HAL_Driver/Src/stm32f3xx_hal_rtc_ex.c ****   *         the same on all devices.
1301:Drivers/STM32F3xx_HAL_Driver/Src/stm32f3xx_hal_rtc_ex.c ****   * @retval Read value
1302:Drivers/STM32F3xx_HAL_Driver/Src/stm32f3xx_hal_rtc_ex.c ****   */
1303:Drivers/STM32F3xx_HAL_Driver/Src/stm32f3xx_hal_rtc_ex.c **** uint32_t HAL_RTCEx_BKUPRead(RTC_HandleTypeDef *hrtc, uint32_t BackupRegister)
1304:Drivers/STM32F3xx_HAL_Driver/Src/stm32f3xx_hal_rtc_ex.c **** {
 2309              		.loc 1 1304 1 is_stmt 1 view -0
ARM GAS  /tmp/ccpBOonR.s 			page 66


 2310              		.cfi_startproc
 2311              		@ args = 0, pretend = 0, frame = 0
 2312              		@ frame_needed = 0, uses_anonymous_args = 0
 2313              		@ link register save eliminated.
1305:Drivers/STM32F3xx_HAL_Driver/Src/stm32f3xx_hal_rtc_ex.c ****   uint32_t tmp = 0U;
 2314              		.loc 1 1305 3 view .LVU732
1306:Drivers/STM32F3xx_HAL_Driver/Src/stm32f3xx_hal_rtc_ex.c **** 
1307:Drivers/STM32F3xx_HAL_Driver/Src/stm32f3xx_hal_rtc_ex.c ****   /* Check the parameters */
1308:Drivers/STM32F3xx_HAL_Driver/Src/stm32f3xx_hal_rtc_ex.c ****   assert_param(IS_RTC_BKP(BackupRegister));
 2315              		.loc 1 1308 3 view .LVU733
1309:Drivers/STM32F3xx_HAL_Driver/Src/stm32f3xx_hal_rtc_ex.c **** 
1310:Drivers/STM32F3xx_HAL_Driver/Src/stm32f3xx_hal_rtc_ex.c ****   tmp = (uint32_t) & (hrtc->Instance->BKP0R);
 2316              		.loc 1 1310 3 view .LVU734
 2317              		.loc 1 1310 27 is_stmt 0 view .LVU735
 2318 0000 0368     		ldr	r3, [r0]
 2319              		.loc 1 1310 20 view .LVU736
 2320 0002 5033     		adds	r3, r3, #80
 2321              	.LVL156:
1311:Drivers/STM32F3xx_HAL_Driver/Src/stm32f3xx_hal_rtc_ex.c ****   tmp += (BackupRegister * 4U);
 2322              		.loc 1 1311 3 is_stmt 1 view .LVU737
1312:Drivers/STM32F3xx_HAL_Driver/Src/stm32f3xx_hal_rtc_ex.c **** 
1313:Drivers/STM32F3xx_HAL_Driver/Src/stm32f3xx_hal_rtc_ex.c ****   /* Read the specified register */
1314:Drivers/STM32F3xx_HAL_Driver/Src/stm32f3xx_hal_rtc_ex.c ****   return (*(__IO uint32_t *)tmp);
 2323              		.loc 1 1314 3 view .LVU738
 2324              		.loc 1 1314 11 is_stmt 0 view .LVU739
 2325 0004 53F82100 		ldr	r0, [r3, r1, lsl #2]
 2326              	.LVL157:
1315:Drivers/STM32F3xx_HAL_Driver/Src/stm32f3xx_hal_rtc_ex.c **** }
 2327              		.loc 1 1315 1 view .LVU740
 2328 0008 7047     		bx	lr
 2329              		.cfi_endproc
 2330              	.LFE154:
 2332              		.section	.text.HAL_RTCEx_SetSmoothCalib,"ax",%progbits
 2333              		.align	1
 2334              		.global	HAL_RTCEx_SetSmoothCalib
 2335              		.syntax unified
 2336              		.thumb
 2337              		.thumb_func
 2338              		.fpu fpv4-sp-d16
 2340              	HAL_RTCEx_SetSmoothCalib:
 2341              	.LVL158:
 2342              	.LFB155:
1316:Drivers/STM32F3xx_HAL_Driver/Src/stm32f3xx_hal_rtc_ex.c **** 
1317:Drivers/STM32F3xx_HAL_Driver/Src/stm32f3xx_hal_rtc_ex.c **** /**
1318:Drivers/STM32F3xx_HAL_Driver/Src/stm32f3xx_hal_rtc_ex.c ****   * @brief  Sets the Smooth calibration parameters.
1319:Drivers/STM32F3xx_HAL_Driver/Src/stm32f3xx_hal_rtc_ex.c ****   * @param  hrtc pointer to a RTC_HandleTypeDef structure that contains
1320:Drivers/STM32F3xx_HAL_Driver/Src/stm32f3xx_hal_rtc_ex.c ****   *                the configuration information for RTC.
1321:Drivers/STM32F3xx_HAL_Driver/Src/stm32f3xx_hal_rtc_ex.c ****   * @param  SmoothCalibPeriod Select the Smooth Calibration Period.
1322:Drivers/STM32F3xx_HAL_Driver/Src/stm32f3xx_hal_rtc_ex.c ****   *          This parameter can be can be one of the following values:
1323:Drivers/STM32F3xx_HAL_Driver/Src/stm32f3xx_hal_rtc_ex.c ****   *             @arg RTC_SMOOTHCALIB_PERIOD_32SEC: The smooth calibration period is 32s.
1324:Drivers/STM32F3xx_HAL_Driver/Src/stm32f3xx_hal_rtc_ex.c ****   *             @arg RTC_SMOOTHCALIB_PERIOD_16SEC: The smooth calibration period is 16s.
1325:Drivers/STM32F3xx_HAL_Driver/Src/stm32f3xx_hal_rtc_ex.c ****   *             @arg RTC_SMOOTHCALIB_PERIOD_8SEC: The smooth calibration period is 8s.
1326:Drivers/STM32F3xx_HAL_Driver/Src/stm32f3xx_hal_rtc_ex.c ****   * @param  SmoothCalibPlusPulses Select to Set or reset the CALP bit.
1327:Drivers/STM32F3xx_HAL_Driver/Src/stm32f3xx_hal_rtc_ex.c ****   *          This parameter can be one of the following values:
1328:Drivers/STM32F3xx_HAL_Driver/Src/stm32f3xx_hal_rtc_ex.c ****   *             @arg RTC_SMOOTHCALIB_PLUSPULSES_SET: Add one RTCCLK pulse every 2*11 pulses.
1329:Drivers/STM32F3xx_HAL_Driver/Src/stm32f3xx_hal_rtc_ex.c ****   *             @arg RTC_SMOOTHCALIB_PLUSPULSES_RESET: No RTCCLK pulses are added.
1330:Drivers/STM32F3xx_HAL_Driver/Src/stm32f3xx_hal_rtc_ex.c ****   * @param  SmoothCalibMinusPulsesValue Select the value of CALM[8:0] bits.
ARM GAS  /tmp/ccpBOonR.s 			page 67


1331:Drivers/STM32F3xx_HAL_Driver/Src/stm32f3xx_hal_rtc_ex.c ****   *          This parameter can be one any value from 0 to 0x000001FF.
1332:Drivers/STM32F3xx_HAL_Driver/Src/stm32f3xx_hal_rtc_ex.c ****   * @note   To deactivate the smooth calibration, the field SmoothCalibPlusPulses
1333:Drivers/STM32F3xx_HAL_Driver/Src/stm32f3xx_hal_rtc_ex.c ****   *         must be equal to SMOOTHCALIB_PLUSPULSES_RESET and the field
1334:Drivers/STM32F3xx_HAL_Driver/Src/stm32f3xx_hal_rtc_ex.c ****   *         SmoothCalibMinusPulsesValue must be equal to 0.
1335:Drivers/STM32F3xx_HAL_Driver/Src/stm32f3xx_hal_rtc_ex.c ****   * @retval HAL status
1336:Drivers/STM32F3xx_HAL_Driver/Src/stm32f3xx_hal_rtc_ex.c ****   */
1337:Drivers/STM32F3xx_HAL_Driver/Src/stm32f3xx_hal_rtc_ex.c **** HAL_StatusTypeDef HAL_RTCEx_SetSmoothCalib(RTC_HandleTypeDef *hrtc, uint32_t SmoothCalibPeriod, uin
1338:Drivers/STM32F3xx_HAL_Driver/Src/stm32f3xx_hal_rtc_ex.c **** {
 2343              		.loc 1 1338 1 is_stmt 1 view -0
 2344              		.cfi_startproc
 2345              		@ args = 0, pretend = 0, frame = 0
 2346              		@ frame_needed = 0, uses_anonymous_args = 0
 2347              		.loc 1 1338 1 is_stmt 0 view .LVU742
 2348 0000 2DE9F041 		push	{r4, r5, r6, r7, r8, lr}
 2349              	.LCFI29:
 2350              		.cfi_def_cfa_offset 24
 2351              		.cfi_offset 4, -24
 2352              		.cfi_offset 5, -20
 2353              		.cfi_offset 6, -16
 2354              		.cfi_offset 7, -12
 2355              		.cfi_offset 8, -8
 2356              		.cfi_offset 14, -4
1339:Drivers/STM32F3xx_HAL_Driver/Src/stm32f3xx_hal_rtc_ex.c ****   uint32_t tickstart = 0U;
 2357              		.loc 1 1339 3 is_stmt 1 view .LVU743
 2358              	.LVL159:
1340:Drivers/STM32F3xx_HAL_Driver/Src/stm32f3xx_hal_rtc_ex.c **** 
1341:Drivers/STM32F3xx_HAL_Driver/Src/stm32f3xx_hal_rtc_ex.c ****   /* Check the parameters */
1342:Drivers/STM32F3xx_HAL_Driver/Src/stm32f3xx_hal_rtc_ex.c ****   assert_param(IS_RTC_SMOOTH_CALIB_PERIOD(SmoothCalibPeriod));
 2359              		.loc 1 1342 3 view .LVU744
1343:Drivers/STM32F3xx_HAL_Driver/Src/stm32f3xx_hal_rtc_ex.c ****   assert_param(IS_RTC_SMOOTH_CALIB_PLUS(SmoothCalibPlusPulses));
 2360              		.loc 1 1343 3 view .LVU745
1344:Drivers/STM32F3xx_HAL_Driver/Src/stm32f3xx_hal_rtc_ex.c ****   assert_param(IS_RTC_SMOOTH_CALIB_MINUS(SmoothCalibMinusPulsesValue));
 2361              		.loc 1 1344 3 view .LVU746
1345:Drivers/STM32F3xx_HAL_Driver/Src/stm32f3xx_hal_rtc_ex.c **** 
1346:Drivers/STM32F3xx_HAL_Driver/Src/stm32f3xx_hal_rtc_ex.c ****   /* Process Locked */
1347:Drivers/STM32F3xx_HAL_Driver/Src/stm32f3xx_hal_rtc_ex.c ****   __HAL_LOCK(hrtc);
 2362              		.loc 1 1347 3 view .LVU747
 2363              		.loc 1 1347 3 view .LVU748
 2364 0004 047F     		ldrb	r4, [r0, #28]	@ zero_extendqisi2
 2365 0006 012C     		cmp	r4, #1
 2366 0008 36D0     		beq	.L155
 2367 000a 1E46     		mov	r6, r3
 2368 000c 1746     		mov	r7, r2
 2369 000e 0D46     		mov	r5, r1
 2370 0010 0446     		mov	r4, r0
 2371              		.loc 1 1347 3 discriminator 2 view .LVU749
 2372 0012 0123     		movs	r3, #1
 2373              	.LVL160:
 2374              		.loc 1 1347 3 is_stmt 0 discriminator 2 view .LVU750
 2375 0014 0377     		strb	r3, [r0, #28]
1348:Drivers/STM32F3xx_HAL_Driver/Src/stm32f3xx_hal_rtc_ex.c **** 
1349:Drivers/STM32F3xx_HAL_Driver/Src/stm32f3xx_hal_rtc_ex.c ****   hrtc->State = HAL_RTC_STATE_BUSY;
 2376              		.loc 1 1349 3 is_stmt 1 discriminator 2 view .LVU751
 2377              		.loc 1 1349 15 is_stmt 0 discriminator 2 view .LVU752
 2378 0016 0223     		movs	r3, #2
 2379 0018 4377     		strb	r3, [r0, #29]
1350:Drivers/STM32F3xx_HAL_Driver/Src/stm32f3xx_hal_rtc_ex.c **** 
ARM GAS  /tmp/ccpBOonR.s 			page 68


1351:Drivers/STM32F3xx_HAL_Driver/Src/stm32f3xx_hal_rtc_ex.c ****   /* Disable the write protection for RTC registers */
1352:Drivers/STM32F3xx_HAL_Driver/Src/stm32f3xx_hal_rtc_ex.c ****   __HAL_RTC_WRITEPROTECTION_DISABLE(hrtc);
 2380              		.loc 1 1352 3 is_stmt 1 discriminator 2 view .LVU753
 2381              		.loc 1 1352 3 discriminator 2 view .LVU754
 2382 001a 0368     		ldr	r3, [r0]
 2383 001c CA22     		movs	r2, #202
 2384              	.LVL161:
 2385              		.loc 1 1352 3 is_stmt 0 discriminator 2 view .LVU755
 2386 001e 5A62     		str	r2, [r3, #36]
 2387              		.loc 1 1352 3 is_stmt 1 discriminator 2 view .LVU756
 2388 0020 0368     		ldr	r3, [r0]
 2389 0022 5322     		movs	r2, #83
 2390 0024 5A62     		str	r2, [r3, #36]
1353:Drivers/STM32F3xx_HAL_Driver/Src/stm32f3xx_hal_rtc_ex.c **** 
1354:Drivers/STM32F3xx_HAL_Driver/Src/stm32f3xx_hal_rtc_ex.c ****   /* check if a calibration is pending*/
